---
triple:          'arm64-apple-darwin'
binary-path:     '/Users/jstochni/pracaMagisterska/pracaMagisterska/implementacja/generowanieDanych/src/main'
relocations:
  - { offset: 0x46, size: 0x8, addend: 0x0, symName: __Z18multiplicationHashii, symObjAddr: 0xB88, symBinAddr: 0x1000029D8, symSize: 0xA4 }
  - { offset: 0x6F, size: 0x8, addend: 0x0, symName: __ZZ18multiplicationHashiiE1A, symObjAddr: 0x13B40, symBinAddr: 0x100016F98, symSize: 0x0 }
  - { offset: 0xD3, size: 0x8, addend: 0x0, symName: __ZNSt3__119piecewise_constructE, symObjAddr: 0x13BA5, symBinAddr: 0x100016FFD, symSize: 0x0 }
  - { offset: 0x2AAD, size: 0x8, addend: 0x0, symName: __ZNSt3__18in_placeE, symObjAddr: 0x13BCF, symBinAddr: 0x100017027, symSize: 0x0 }
  - { offset: 0xAD53, size: 0x8, addend: 0x0, symName: __ZNSt3__110__function10__not_nullB8ue170006IFiiiEEEbPT_, symObjAddr: 0x5908, symBinAddr: 0x100007758, symSize: 0x20 }
  - { offset: 0xC670, size: 0x8, addend: 0x0, symName: __ZNSt3__124__put_character_sequenceB8ue170006IcNS_11char_traitsIcEEEERNS_13basic_ostreamIT_T0_EES7_PKS4_m, symObjAddr: 0x26C8, symBinAddr: 0x100004518, symSize: 0x1EC }
  - { offset: 0x1861D, size: 0x8, addend: 0x0, symName: __ZNSt3__1lsB8ue170006INS_11char_traitsIcEEEERNS_13basic_ostreamIcT_EES6_PKc, symObjAddr: 0x8FC, symBinAddr: 0x10000274C, symSize: 0x48 }
  - { offset: 0x18663, size: 0x8, addend: 0x0, symName: __ZNSt3__14endlB8ue170006IcNS_11char_traitsIcEEEERNS_13basic_ostreamIT_T0_EES7_, symObjAddr: 0x970, symBinAddr: 0x1000027C0, symSize: 0x58 }
  - { offset: 0x186A3, size: 0x8, addend: 0x0, symName: __ZNSt3__1neB8ue170006IPiEEbRKNS_11__wrap_iterIT_EES6_, symObjAddr: 0xDF0, symBinAddr: 0x100002C40, symSize: 0x34 }
  - { offset: 0x186E6, size: 0x8, addend: 0x0, symName: __ZNSt3__1neB8ue170006IP16DistributionTypeEEbRKNS_11__wrap_iterIT_EES7_, symObjAddr: 0xE9C, symBinAddr: 0x100002CEC, symSize: 0x34 }
  - { offset: 0x18729, size: 0x8, addend: 0x0, symName: __ZNSt3__1neB8ue170006IPNS_8functionIFiiiEEEEEbRKNS_11__wrap_iterIT_EES9_, symObjAddr: 0xF48, symBinAddr: 0x100002D98, symSize: 0x34 }
  - { offset: 0x18777, size: 0x8, addend: 0x0, symName: __ZNSt3__118__constexpr_strlenB8ue170006EPKc, symObjAddr: 0x1958, symBinAddr: 0x1000037A8, symSize: 0x24 }
  - { offset: 0x187A3, size: 0x8, addend: 0x0, symName: __ZNSt3__1eqB8ue170006IPiEEbRKNS_11__wrap_iterIT_EES6_, symObjAddr: 0x198C, symBinAddr: 0x1000037DC, symSize: 0x48 }
  - { offset: 0x187E6, size: 0x8, addend: 0x0, symName: __ZNSt3__1eqB8ue170006IP16DistributionTypeEEbRKNS_11__wrap_iterIT_EES7_, symObjAddr: 0x19EC, symBinAddr: 0x10000383C, symSize: 0x48 }
  - { offset: 0x18829, size: 0x8, addend: 0x0, symName: __ZNSt3__1eqB8ue170006IPNS_8functionIFiiiEEEEEbRKNS_11__wrap_iterIT_EES9_, symObjAddr: 0x1A4C, symBinAddr: 0x10000389C, symSize: 0x48 }
  - { offset: 0x1886C, size: 0x8, addend: 0x0, symName: __ZNSt3__112__to_addressB8ue170006IiEEPT_S2_, symObjAddr: 0x22A0, symBinAddr: 0x1000040F0, symSize: 0x14 }
  - { offset: 0x188A1, size: 0x8, addend: 0x0, symName: __ZNSt3__119__libcpp_deallocateB8ue170006EPvmm, symObjAddr: 0x2378, symBinAddr: 0x1000041C8, symSize: 0x60 }
  - { offset: 0x18906, size: 0x8, addend: 0x0, symName: __ZNSt3__124__is_overaligned_for_newB8ue170006Em, symObjAddr: 0x23D8, symBinAddr: 0x100004228, symSize: 0x20 }
  - { offset: 0x18934, size: 0x8, addend: 0x0, symName: __ZNSt3__127__do_deallocate_handle_sizeB8ue170006IJSt11align_val_tEEEvPvmDpT_, symObjAddr: 0x23F8, symBinAddr: 0x100004248, symSize: 0x30 }
  - { offset: 0x18987, size: 0x8, addend: 0x0, symName: __ZNSt3__127__do_deallocate_handle_sizeB8ue170006IJEEEvPvmDpT_, symObjAddr: 0x2428, symBinAddr: 0x100004278, symSize: 0x28 }
  - { offset: 0x189C5, size: 0x8, addend: 0x0, symName: __ZNSt3__124__libcpp_operator_deleteB8ue170006IJPvSt11align_val_tEEEvDpT_, symObjAddr: 0x2450, symBinAddr: 0x1000042A0, symSize: 0x2C }
  - { offset: 0x18A0E, size: 0x8, addend: 0x0, symName: __ZNSt3__124__libcpp_operator_deleteB8ue170006IJPvEEEvDpT_, symObjAddr: 0x247C, symBinAddr: 0x1000042CC, symSize: 0x24 }
  - { offset: 0x18A43, size: 0x8, addend: 0x0, symName: __ZNSt3__116__pad_and_outputB8ue170006IcNS_11char_traitsIcEEEENS_19ostreambuf_iteratorIT_T0_EES6_PKS4_S8_S8_RNS_8ios_baseES4_, symObjAddr: 0x28D0, symBinAddr: 0x100004720, symSize: 0x240 }
  - { offset: 0x18B12, size: 0x8, addend: 0x0, symName: __ZNSt3__112__to_addressB8ue170006IcEEPT_S2_, symObjAddr: 0x2D14, symBinAddr: 0x100004B64, symSize: 0x14 }
  - { offset: 0x18B7A, size: 0x8, addend: 0x0, symName: __ZNSt3__19use_facetB8ue170006INS_5ctypeIcEEEERKT_RKNS_6localeE, symObjAddr: 0x2F8C, symBinAddr: 0x100004DDC, symSize: 0x2C }
  - { offset: 0x19047, size: 0x8, addend: 0x0, symName: __ZNSt3__122__make_exception_guardB8ue170006INS_6vectorIiNS_9allocatorIiEEE16__destroy_vectorEEENS_28__exception_guard_exceptionsIT_EES7_, symObjAddr: 0x314C, symBinAddr: 0x100004F9C, symSize: 0x40 }
  - { offset: 0x1907C, size: 0x8, addend: 0x0, symName: __ZNSt3__119__allocate_at_leastB8ue170006INS_9allocatorIiEEEENS_19__allocation_resultINS_16allocator_traitsIT_E7pointerEEERS5_m, symObjAddr: 0x34F8, symBinAddr: 0x100005348, symSize: 0x40 }
  - { offset: 0x190BF, size: 0x8, addend: 0x0, symName: __ZNSt3__13minB8ue170006ImEERKT_S3_S3_, symObjAddr: 0x360C, symBinAddr: 0x10000545C, symSize: 0x2C }
  - { offset: 0x192EC, size: 0x8, addend: 0x0, symName: __ZNSt3__13minB8ue170006ImNS_6__lessIvvEEEERKT_S5_S5_T0_, symObjAddr: 0x3698, symBinAddr: 0x1000054E8, symSize: 0x54 }
  - { offset: 0x1938B, size: 0x8, addend: 0x0, symName: __ZNSt3__120__throw_length_errorB8ue170006EPKc, symObjAddr: 0x3774, symBinAddr: 0x1000055C4, symSize: 0x64 }
  - { offset: 0x193B5, size: 0x8, addend: 0x0, symName: __ZNSt3__117__libcpp_allocateB8ue170006Emm, symObjAddr: 0x38DC, symBinAddr: 0x10000572C, symSize: 0x60 }
  - { offset: 0x1940F, size: 0x8, addend: 0x0, symName: __ZNSt3__121__libcpp_operator_newB8ue170006IJmSt11align_val_tEEEPvDpT_, symObjAddr: 0x393C, symBinAddr: 0x10000578C, symSize: 0x2C }
  - { offset: 0x1945C, size: 0x8, addend: 0x0, symName: __ZNSt3__121__libcpp_operator_newB8ue170006IJmEEEPvDpT_, symObjAddr: 0x3968, symBinAddr: 0x1000057B8, symSize: 0x24 }
  - { offset: 0x19495, size: 0x8, addend: 0x0, symName: __ZNSt3__130__uninitialized_allocator_copyB8ue170006INS_9allocatorIiEEPKiS4_PiEET2_RT_T0_T1_S6_, symObjAddr: 0x3A00, symBinAddr: 0x100005850, symSize: 0x80 }
  - { offset: 0x19532, size: 0x8, addend: 0x0, symName: __ZNSt3__114__unwrap_rangeB8ue170006IPKiS2_EENS_4pairIT0_S4_EET_S6_, symObjAddr: 0x3AF0, symBinAddr: 0x100005940, symSize: 0x60 }
  - { offset: 0x1957E, size: 0x8, addend: 0x0, symName: __ZNSt3__135__uninitialized_allocator_copy_implB8ue170006INS_9allocatorIiEEKiiiLPv0EEEPT2_RT_PT0_SA_S6_, symObjAddr: 0x3B50, symBinAddr: 0x1000059A0, symSize: 0x38 }
  - { offset: 0x195FF, size: 0x8, addend: 0x0, symName: __ZNSt3__113__unwrap_iterB8ue170006IPiNS_18__unwrap_iter_implIS1_Lb1EEELi0EEEDTclsrT0_8__unwrapclsr3stdE7declvalIT_EEEES5_, symObjAddr: 0x3B88, symBinAddr: 0x1000059D8, symSize: 0x24 }
  - { offset: 0x19643, size: 0x8, addend: 0x0, symName: __ZNSt3__113__rewrap_iterB8ue170006IPiS1_NS_18__unwrap_iter_implIS1_Lb1EEEEET_S4_T0_, symObjAddr: 0x3BAC, symBinAddr: 0x1000059FC, symSize: 0x3C }
  - { offset: 0x19698, size: 0x8, addend: 0x0, symName: __ZNSt3__19make_pairB8ue170006IPKiS2_EENS_4pairINS_18__unwrap_ref_decayIT_E4typeENS4_IT0_E4typeEEEOS5_OS8_, symObjAddr: 0x3BE8, symBinAddr: 0x100005A38, symSize: 0x38 }
  - { offset: 0x196E7, size: 0x8, addend: 0x0, symName: __ZNSt3__113__unwrap_iterB8ue170006IPKiNS_18__unwrap_iter_implIS2_Lb1EEELi0EEEDTclsrT0_8__unwrapclsr3stdE7declvalIT_EEEES6_, symObjAddr: 0x3C20, symBinAddr: 0x100005A70, symSize: 0x24 }
  - { offset: 0x19852, size: 0x8, addend: 0x0, symName: __ZNSt3__112__to_addressB8ue170006IKiEEPT_S3_, symObjAddr: 0x3CD8, symBinAddr: 0x100005B28, symSize: 0x14 }
  - { offset: 0x19887, size: 0x8, addend: 0x0, symName: __ZNSt3__14copyB8ue170006IPKiPiEET0_T_S5_S4_, symObjAddr: 0x3CEC, symBinAddr: 0x100005B3C, symSize: 0x40 }
  - { offset: 0x198E1, size: 0x8, addend: 0x0, symName: __ZNSt3__16__copyB8ue170006INS_17_ClassicAlgPolicyEPKiS3_PiEENS_4pairIT0_T2_EES6_T1_S7_, symObjAddr: 0x3D2C, symBinAddr: 0x100005B7C, symSize: 0x44 }
  - { offset: 0x1994D, size: 0x8, addend: 0x0, symName: __ZNSt3__123__dispatch_copy_or_moveB8ue170006INS_17_ClassicAlgPolicyENS_11__copy_loopIS1_EENS_14__copy_trivialEPKiS6_PiEENS_4pairIT2_T4_EES9_T3_SA_, symObjAddr: 0x3D70, symBinAddr: 0x100005BC0, symSize: 0x44 }
  - { offset: 0x199CB, size: 0x8, addend: 0x0, symName: __ZNSt3__121__unwrap_and_dispatchB8ue170006INS_10__overloadINS_11__copy_loopINS_17_ClassicAlgPolicyEEENS_14__copy_trivialEEEPKiS8_PiLi0EEENS_4pairIT0_T2_EESB_T1_SC_, symObjAddr: 0x3DB4, symBinAddr: 0x100005C04, symSize: 0xB4 }
  - { offset: 0x19C1A, size: 0x8, addend: 0x0, symName: __ZNSt3__19make_pairB8ue170006IPKiPiEENS_4pairINS_18__unwrap_ref_decayIT_E4typeENS5_IT0_E4typeEEEOS6_OS9_, symObjAddr: 0x3EB0, symBinAddr: 0x100005D00, symSize: 0x38 }
  - { offset: 0x19C69, size: 0x8, addend: 0x0, symName: __ZNSt3__114__rewrap_rangeB8ue170006IPKiS2_EET_S3_T0_, symObjAddr: 0x3EE8, symBinAddr: 0x100005D38, symSize: 0x2C }
  - { offset: 0x19CB5, size: 0x8, addend: 0x0, symName: __ZNSt3__119__copy_trivial_implB8ue170006IKiiEENS_4pairIPT_PT0_EES4_S4_S6_, symObjAddr: 0x3F14, symBinAddr: 0x100005D64, symSize: 0x80 }
  - { offset: 0x19D1D, size: 0x8, addend: 0x0, symName: __ZNSt3__119__constexpr_memmoveB8ue170006IiKiLi0EEEPT_S3_PT0_NS_15__element_countE, symObjAddr: 0x3F94, symBinAddr: 0x100005DE4, symSize: 0x64 }
  - { offset: 0x19D8B, size: 0x8, addend: 0x0, symName: __ZNSt3__19make_pairB8ue170006IRPKiPiEENS_4pairINS_18__unwrap_ref_decayIT_E4typeENS6_IT0_E4typeEEEOS7_OSA_, symObjAddr: 0x3FF8, symBinAddr: 0x100005E48, symSize: 0x38 }
  - { offset: 0x19DDA, size: 0x8, addend: 0x0, symName: __ZNSt3__113__rewrap_iterB8ue170006IPKiS2_NS_18__unwrap_iter_implIS2_Lb1EEEEET_S5_T0_, symObjAddr: 0x4110, symBinAddr: 0x100005F60, symSize: 0x3C }
  - { offset: 0x19E82, size: 0x8, addend: 0x0, symName: __ZNSt3__122__make_exception_guardB8ue170006INS_6vectorI16DistributionTypeNS_9allocatorIS2_EEE16__destroy_vectorEEENS_28__exception_guard_exceptionsIT_EES8_, symObjAddr: 0x43D4, symBinAddr: 0x100006224, symSize: 0x40 }
  - { offset: 0x19EB7, size: 0x8, addend: 0x0, symName: __ZNSt3__119__allocate_at_leastB8ue170006INS_9allocatorI16DistributionTypeEEEENS_19__allocation_resultINS_16allocator_traitsIT_E7pointerEEERS6_m, symObjAddr: 0x47D4, symBinAddr: 0x100006624, symSize: 0x40 }
  - { offset: 0x19EFA, size: 0x8, addend: 0x0, symName: __ZNSt3__112__to_addressB8ue170006I16DistributionTypeEEPT_S3_, symObjAddr: 0x4AF8, symBinAddr: 0x100006948, symSize: 0x14 }
  - { offset: 0x19F2F, size: 0x8, addend: 0x0, symName: __ZNSt3__130__uninitialized_allocator_copyB8ue170006INS_9allocatorI16DistributionTypeEEPKS2_S5_PS2_EET2_RT_T0_T1_S7_, symObjAddr: 0x4BA8, symBinAddr: 0x1000069F8, symSize: 0x80 }
  - { offset: 0x19FCC, size: 0x8, addend: 0x0, symName: __ZNSt3__114__unwrap_rangeB8ue170006IPK16DistributionTypeS3_EENS_4pairIT0_S5_EET_S7_, symObjAddr: 0x4C98, symBinAddr: 0x100006AE8, symSize: 0x60 }
  - { offset: 0x1A018, size: 0x8, addend: 0x0, symName: __ZNSt3__135__uninitialized_allocator_copy_implB8ue170006INS_9allocatorI16DistributionTypeEEKS2_S2_S2_LPv0EEEPT2_RT_PT0_SB_S7_, symObjAddr: 0x4CF8, symBinAddr: 0x100006B48, symSize: 0x38 }
  - { offset: 0x1A099, size: 0x8, addend: 0x0, symName: __ZNSt3__113__unwrap_iterB8ue170006IP16DistributionTypeNS_18__unwrap_iter_implIS2_Lb1EEELi0EEEDTclsrT0_8__unwrapclsr3stdE7declvalIT_EEEES6_, symObjAddr: 0x4D30, symBinAddr: 0x100006B80, symSize: 0x24 }
  - { offset: 0x1A0DD, size: 0x8, addend: 0x0, symName: __ZNSt3__113__rewrap_iterB8ue170006IP16DistributionTypeS2_NS_18__unwrap_iter_implIS2_Lb1EEEEET_S5_T0_, symObjAddr: 0x4D54, symBinAddr: 0x100006BA4, symSize: 0x3C }
  - { offset: 0x1A132, size: 0x8, addend: 0x0, symName: __ZNSt3__19make_pairB8ue170006IPK16DistributionTypeS3_EENS_4pairINS_18__unwrap_ref_decayIT_E4typeENS5_IT0_E4typeEEEOS6_OS9_, symObjAddr: 0x4D90, symBinAddr: 0x100006BE0, symSize: 0x38 }
  - { offset: 0x1A181, size: 0x8, addend: 0x0, symName: __ZNSt3__113__unwrap_iterB8ue170006IPK16DistributionTypeNS_18__unwrap_iter_implIS3_Lb1EEELi0EEEDTclsrT0_8__unwrapclsr3stdE7declvalIT_EEEES7_, symObjAddr: 0x4DC8, symBinAddr: 0x100006C18, symSize: 0x24 }
  - { offset: 0x1A2EC, size: 0x8, addend: 0x0, symName: __ZNSt3__112__to_addressB8ue170006IK16DistributionTypeEEPT_S4_, symObjAddr: 0x4E80, symBinAddr: 0x100006CD0, symSize: 0x14 }
  - { offset: 0x1A321, size: 0x8, addend: 0x0, symName: __ZNSt3__14copyB8ue170006IPK16DistributionTypePS1_EET0_T_S6_S5_, symObjAddr: 0x4E94, symBinAddr: 0x100006CE4, symSize: 0x40 }
  - { offset: 0x1A37B, size: 0x8, addend: 0x0, symName: __ZNSt3__16__copyB8ue170006INS_17_ClassicAlgPolicyEPK16DistributionTypeS4_PS2_EENS_4pairIT0_T2_EES7_T1_S8_, symObjAddr: 0x4ED4, symBinAddr: 0x100006D24, symSize: 0x44 }
  - { offset: 0x1A3E7, size: 0x8, addend: 0x0, symName: __ZNSt3__123__dispatch_copy_or_moveB8ue170006INS_17_ClassicAlgPolicyENS_11__copy_loopIS1_EENS_14__copy_trivialEPK16DistributionTypeS7_PS5_EENS_4pairIT2_T4_EESA_T3_SB_, symObjAddr: 0x4F18, symBinAddr: 0x100006D68, symSize: 0x44 }
  - { offset: 0x1A465, size: 0x8, addend: 0x0, symName: __ZNSt3__121__unwrap_and_dispatchB8ue170006INS_10__overloadINS_11__copy_loopINS_17_ClassicAlgPolicyEEENS_14__copy_trivialEEEPK16DistributionTypeS9_PS7_Li0EEENS_4pairIT0_T2_EESC_T1_SD_, symObjAddr: 0x4F5C, symBinAddr: 0x100006DAC, symSize: 0xB4 }
  - { offset: 0x1A5F6, size: 0x8, addend: 0x0, symName: __ZNSt3__19make_pairB8ue170006IPK16DistributionTypePS1_EENS_4pairINS_18__unwrap_ref_decayIT_E4typeENS6_IT0_E4typeEEEOS7_OSA_, symObjAddr: 0x5058, symBinAddr: 0x100006EA8, symSize: 0x38 }
  - { offset: 0x1A645, size: 0x8, addend: 0x0, symName: __ZNSt3__114__rewrap_rangeB8ue170006IPK16DistributionTypeS3_EET_S4_T0_, symObjAddr: 0x5090, symBinAddr: 0x100006EE0, symSize: 0x2C }
  - { offset: 0x1A691, size: 0x8, addend: 0x0, symName: __ZNSt3__119__copy_trivial_implB8ue170006IK16DistributionTypeS1_EENS_4pairIPT_PT0_EES5_S5_S7_, symObjAddr: 0x50BC, symBinAddr: 0x100006F0C, symSize: 0x80 }
  - { offset: 0x1A6F9, size: 0x8, addend: 0x0, symName: __ZNSt3__119__constexpr_memmoveB8ue170006I16DistributionTypeKS1_Li0EEEPT_S4_PT0_NS_15__element_countE, symObjAddr: 0x513C, symBinAddr: 0x100006F8C, symSize: 0x64 }
  - { offset: 0x1A767, size: 0x8, addend: 0x0, symName: __ZNSt3__19make_pairB8ue170006IRPK16DistributionTypePS1_EENS_4pairINS_18__unwrap_ref_decayIT_E4typeENS7_IT0_E4typeEEEOS8_OSB_, symObjAddr: 0x51A0, symBinAddr: 0x100006FF0, symSize: 0x38 }
  - { offset: 0x1A7B6, size: 0x8, addend: 0x0, symName: __ZNSt3__113__rewrap_iterB8ue170006IPK16DistributionTypeS3_NS_18__unwrap_iter_implIS3_Lb1EEEEET_S6_T0_, symObjAddr: 0x52B8, symBinAddr: 0x100007108, symSize: 0x3C }
  - { offset: 0x1A9C1, size: 0x8, addend: 0x0, symName: __ZNSt3__116forward_as_tupleB8ue170006IJPFiiiEEEENS_5tupleIJDpOT_EEES6_, symObjAddr: 0x5E90, symBinAddr: 0x100007CE0, symSize: 0x2C }
  - { offset: 0x1A9FA, size: 0x8, addend: 0x0, symName: __ZNSt3__116forward_as_tupleB8ue170006IJNS_9allocatorIPFiiiEEEEEENS_5tupleIJDpOT_EEES8_, symObjAddr: 0x5EBC, symBinAddr: 0x100007D0C, symSize: 0x2C }
  - { offset: 0x1AA77, size: 0x8, addend: 0x0, symName: __ZNSt3__13getB8ue170006ILm0EJOPFiiiEEEERNS_13tuple_elementIXT_ENS_5tupleIJDpT0_EEEE4typeERS8_, symObjAddr: 0x61D4, symBinAddr: 0x100008024, symSize: 0x24 }
  - { offset: 0x1AAB9, size: 0x8, addend: 0x0, symName: __ZNSt3__13getB8ue170006ILm0EJONS_9allocatorIPFiiiEEEEEERNS_13tuple_elementIXT_ENS_5tupleIJDpT0_EEEE4typeERSA_, symObjAddr: 0x6210, symBinAddr: 0x100008060, symSize: 0x24 }
  - { offset: 0x1AFDF, size: 0x8, addend: 0x0, symName: __ZNSt3__116forward_as_tupleB8ue170006IJRKPFiiiEEEENS_5tupleIJDpOT_EEES8_, symObjAddr: 0x679C, symBinAddr: 0x1000085EC, symSize: 0x2C }
  - { offset: 0x1B02D, size: 0x8, addend: 0x0, symName: __ZNSt3__13getB8ue170006ILm0EJRKPFiiiEEEERNS_13tuple_elementIXT_ENS_5tupleIJDpT0_EEEE4typeERS9_, symObjAddr: 0x698C, symBinAddr: 0x1000087DC, symSize: 0x24 }
  - { offset: 0x1B06F, size: 0x8, addend: 0x0, symName: __ZNSt3__116forward_as_tupleB8ue170006IJRKNS_9allocatorIPFiiiEEEEEENS_5tupleIJDpOT_EEESA_, symObjAddr: 0x6CE0, symBinAddr: 0x100008B30, symSize: 0x2C }
  - { offset: 0x1B0BD, size: 0x8, addend: 0x0, symName: __ZNSt3__13getB8ue170006ILm0EJRKNS_9allocatorIPFiiiEEEEEERNS_13tuple_elementIXT_ENS_5tupleIJDpT0_EEEE4typeERSB_, symObjAddr: 0x6EC4, symBinAddr: 0x100008D14, symSize: 0x24 }
  - { offset: 0x1B14E, size: 0x8, addend: 0x0, symName: __ZNSt3__18__invokeB8ue170006IRPFiiiEJiiEEEDTclclsr3stdE7declvalIT_EEspclsr3stdE7declvalIT0_EEEEOS4_DpOS5_, symObjAddr: 0x6FA0, symBinAddr: 0x100008DF0, symSize: 0x40 }
  - { offset: 0x1B1B3, size: 0x8, addend: 0x0, symName: __ZNSt3__122__make_exception_guardB8ue170006INS_6vectorINS_8functionIFiiiEEENS_9allocatorIS4_EEE16__destroy_vectorEEENS_28__exception_guard_exceptionsIT_EESA_, symObjAddr: 0x724C, symBinAddr: 0x10000909C, symSize: 0x40 }
  - { offset: 0x1B1E8, size: 0x8, addend: 0x0, symName: __ZNSt3__119__allocate_at_leastB8ue170006INS_9allocatorINS_8functionIFiiiEEEEEEENS_19__allocation_resultINS_16allocator_traitsIT_E7pointerEEERS8_m, symObjAddr: 0x764C, symBinAddr: 0x10000949C, symSize: 0x40 }
  - { offset: 0x1B22B, size: 0x8, addend: 0x0, symName: __ZNSt3__112__to_addressB8ue170006INS_8functionIFiiiEEEEEPT_S5_, symObjAddr: 0x7970, symBinAddr: 0x1000097C0, symSize: 0x14 }
  - { offset: 0x1B260, size: 0x8, addend: 0x0, symName: __ZNSt3__130__uninitialized_allocator_copyB8ue170006INS_9allocatorINS_8functionIFiiiEEEEEPKS4_S7_PS4_EET2_RT_T0_T1_S9_, symObjAddr: 0x7A20, symBinAddr: 0x100009870, symSize: 0x80 }
  - { offset: 0x1B2FD, size: 0x8, addend: 0x0, symName: __ZNSt3__114__unwrap_rangeB8ue170006IPKNS_8functionIFiiiEEES5_EENS_4pairIT0_S7_EET_S9_, symObjAddr: 0x7B10, symBinAddr: 0x100009960, symSize: 0x60 }
  - { offset: 0x1B349, size: 0x8, addend: 0x0, symName: __ZNSt3__135__uninitialized_allocator_copy_implB8ue170006INS_9allocatorINS_8functionIFiiiEEEEEPKS4_S7_PS4_EET2_RT_T0_T1_S9_, symObjAddr: 0x7B70, symBinAddr: 0x1000099C0, symSize: 0xF4 }
  - { offset: 0x1B3E7, size: 0x8, addend: 0x0, symName: __ZNSt3__113__unwrap_iterB8ue170006IPNS_8functionIFiiiEEENS_18__unwrap_iter_implIS4_Lb1EEELi0EEEDTclsrT0_8__unwrapclsr3stdE7declvalIT_EEEES8_, symObjAddr: 0x7C64, symBinAddr: 0x100009AB4, symSize: 0x24 }
  - { offset: 0x1B42B, size: 0x8, addend: 0x0, symName: __ZNSt3__113__rewrap_iterB8ue170006IPNS_8functionIFiiiEEES4_NS_18__unwrap_iter_implIS4_Lb1EEEEET_S7_T0_, symObjAddr: 0x7C88, symBinAddr: 0x100009AD8, symSize: 0x3C }
  - { offset: 0x1B480, size: 0x8, addend: 0x0, symName: __ZNSt3__19make_pairB8ue170006IPKNS_8functionIFiiiEEES5_EENS_4pairINS_18__unwrap_ref_decayIT_E4typeENS7_IT0_E4typeEEEOS8_OSB_, symObjAddr: 0x7CC4, symBinAddr: 0x100009B14, symSize: 0x38 }
  - { offset: 0x1B4CF, size: 0x8, addend: 0x0, symName: __ZNSt3__113__unwrap_iterB8ue170006IPKNS_8functionIFiiiEEENS_18__unwrap_iter_implIS5_Lb1EEELi0EEEDTclsrT0_8__unwrapclsr3stdE7declvalIT_EEEES9_, symObjAddr: 0x7CFC, symBinAddr: 0x100009B4C, symSize: 0x24 }
  - { offset: 0x1B63A, size: 0x8, addend: 0x0, symName: __ZNSt3__112__to_addressB8ue170006IKNS_8functionIFiiiEEEEEPT_S6_, symObjAddr: 0x7DB4, symBinAddr: 0x100009C04, symSize: 0x14 }
  - { offset: 0x1B66F, size: 0x8, addend: 0x0, symName: __ZNSt3__122__make_exception_guardB8ue170006INS_29_AllocatorDestroyRangeReverseINS_9allocatorINS_8functionIFiiiEEEEEPS5_EEEENS_28__exception_guard_exceptionsIT_EESA_, symObjAddr: 0x7DC8, symBinAddr: 0x100009C18, symSize: 0x4C }
  - { offset: 0x1B6A5, size: 0x8, addend: 0x0, symName: __ZNSt3__119__allocator_destroyB8ue170006INS_9allocatorINS_8functionIFiiiEEEEENS_16reverse_iteratorIPS4_EES8_EEvRT_T0_T1_, symObjAddr: 0x8058, symBinAddr: 0x100009EA8, symSize: 0x70 }
  - { offset: 0x1B708, size: 0x8, addend: 0x0, symName: __ZNSt3__1neB8ue170006IPNS_8functionIFiiiEEES4_EEbRKNS_16reverse_iteratorIT_EERKNS5_IT0_EE, symObjAddr: 0x80FC, symBinAddr: 0x100009F4C, symSize: 0x48 }
  - { offset: 0x1B754, size: 0x8, addend: 0x0, symName: __ZNSt3__112__to_addressB8ue170006INS_16reverse_iteratorIPNS_8functionIFiiiEEEEEvEEu7__decayIDTclsr19__to_address_helperIT_EE6__callclsr3stdE7declvalIRKS7_EEEEES9_, symObjAddr: 0x8170, symBinAddr: 0x100009FC0, symSize: 0x24 }
  - { offset: 0x1B806, size: 0x8, addend: 0x0, symName: __ZNSt3__122__make_exception_guardB8ue170006INS_6vectorINS_12basic_stringIcNS_11char_traitsIcEENS_9allocatorIcEEEENS5_IS7_EEE16__destroy_vectorEEENS_28__exception_guard_exceptionsIT_EESC_, symObjAddr: 0x87B8, symBinAddr: 0x10000A608, symSize: 0x40 }
  - { offset: 0x1B83B, size: 0x8, addend: 0x0, symName: __ZNSt3__119__allocate_at_leastB8ue170006INS_9allocatorINS_12basic_stringIcNS_11char_traitsIcEENS1_IcEEEEEEEENS_19__allocation_resultINS_16allocator_traitsIT_E7pointerEEERSA_m, symObjAddr: 0x8BC8, symBinAddr: 0x10000AA18, symSize: 0x40 }
  - { offset: 0x1B87E, size: 0x8, addend: 0x0, symName: __ZNSt3__112__to_addressB8ue170006INS_12basic_stringIcNS_11char_traitsIcEENS_9allocatorIcEEEEEEPT_S8_, symObjAddr: 0x8F10, symBinAddr: 0x10000AD60, symSize: 0x14 }
  - { offset: 0x1B8B3, size: 0x8, addend: 0x0, symName: __ZNSt3__130__uninitialized_allocator_copyB8ue170006INS_9allocatorINS_12basic_stringIcNS_11char_traitsIcEENS1_IcEEEEEEPKS6_S9_PS6_EET2_RT_T0_T1_SB_, symObjAddr: 0x8FC0, symBinAddr: 0x10000AE10, symSize: 0x80 }
  - { offset: 0x1B950, size: 0x8, addend: 0x0, symName: __ZNSt3__114__unwrap_rangeB8ue170006IPKNS_12basic_stringIcNS_11char_traitsIcEENS_9allocatorIcEEEES8_EENS_4pairIT0_SA_EET_SC_, symObjAddr: 0x90B8, symBinAddr: 0x10000AF08, symSize: 0x60 }
  - { offset: 0x1B99C, size: 0x8, addend: 0x0, symName: __ZNSt3__135__uninitialized_allocator_copy_implB8ue170006INS_9allocatorINS_12basic_stringIcNS_11char_traitsIcEENS1_IcEEEEEEPKS6_S9_PS6_EET2_RT_T0_T1_SB_, symObjAddr: 0x9118, symBinAddr: 0x10000AF68, symSize: 0xF4 }
  - { offset: 0x1BA3A, size: 0x8, addend: 0x0, symName: __ZNSt3__113__unwrap_iterB8ue170006IPNS_12basic_stringIcNS_11char_traitsIcEENS_9allocatorIcEEEENS_18__unwrap_iter_implIS7_Lb1EEELi0EEEDTclsrT0_8__unwrapclsr3stdE7declvalIT_EEEESB_, symObjAddr: 0x920C, symBinAddr: 0x10000B05C, symSize: 0x24 }
  - { offset: 0x1BA7E, size: 0x8, addend: 0x0, symName: __ZNSt3__113__rewrap_iterB8ue170006IPNS_12basic_stringIcNS_11char_traitsIcEENS_9allocatorIcEEEES7_NS_18__unwrap_iter_implIS7_Lb1EEEEET_SA_T0_, symObjAddr: 0x9230, symBinAddr: 0x10000B080, symSize: 0x3C }
  - { offset: 0x1BAD3, size: 0x8, addend: 0x0, symName: __ZNSt3__19make_pairB8ue170006IPKNS_12basic_stringIcNS_11char_traitsIcEENS_9allocatorIcEEEES8_EENS_4pairINS_18__unwrap_ref_decayIT_E4typeENSA_IT0_E4typeEEEOSB_OSE_, symObjAddr: 0x926C, symBinAddr: 0x10000B0BC, symSize: 0x38 }
  - { offset: 0x1BB22, size: 0x8, addend: 0x0, symName: __ZNSt3__113__unwrap_iterB8ue170006IPKNS_12basic_stringIcNS_11char_traitsIcEENS_9allocatorIcEEEENS_18__unwrap_iter_implIS8_Lb1EEELi0EEEDTclsrT0_8__unwrapclsr3stdE7declvalIT_EEEESC_, symObjAddr: 0x92A4, symBinAddr: 0x10000B0F4, symSize: 0x24 }
  - { offset: 0x1BC8D, size: 0x8, addend: 0x0, symName: __ZNSt3__112__to_addressB8ue170006IKNS_12basic_stringIcNS_11char_traitsIcEENS_9allocatorIcEEEEEEPT_S9_, symObjAddr: 0x935C, symBinAddr: 0x10000B1AC, symSize: 0x14 }
  - { offset: 0x1BCC2, size: 0x8, addend: 0x0, symName: __ZNSt3__122__make_exception_guardB8ue170006INS_29_AllocatorDestroyRangeReverseINS_9allocatorINS_12basic_stringIcNS_11char_traitsIcEENS2_IcEEEEEEPS7_EEEENS_28__exception_guard_exceptionsIT_EESC_, symObjAddr: 0x9370, symBinAddr: 0x10000B1C0, symSize: 0x4C }
  - { offset: 0x1BCF8, size: 0x8, addend: 0x0, symName: __ZNSt3__119__allocator_destroyB8ue170006INS_9allocatorINS_12basic_stringIcNS_11char_traitsIcEENS1_IcEEEEEENS_16reverse_iteratorIPS6_EESA_EEvRT_T0_T1_, symObjAddr: 0x9600, symBinAddr: 0x10000B450, symSize: 0x70 }
  - { offset: 0x1BD5B, size: 0x8, addend: 0x0, symName: __ZNSt3__1neB8ue170006IPNS_12basic_stringIcNS_11char_traitsIcEENS_9allocatorIcEEEES7_EEbRKNS_16reverse_iteratorIT_EERKNS8_IT0_EE, symObjAddr: 0x96A4, symBinAddr: 0x10000B4F4, symSize: 0x48 }
  - { offset: 0x1BDA7, size: 0x8, addend: 0x0, symName: __ZNSt3__112__to_addressB8ue170006INS_16reverse_iteratorIPNS_12basic_stringIcNS_11char_traitsIcEENS_9allocatorIcEEEEEEvEEu7__decayIDTclsr19__to_address_helperIT_EE6__callclsr3stdE7declvalIRKSA_EEEEESC_, symObjAddr: 0x9718, symBinAddr: 0x10000B568, symSize: 0x24 }
  - { offset: 0x1BE59, size: 0x8, addend: 0x0, symName: __ZNSt3__1lsB8ue170006IcNS_11char_traitsIcEENS_9allocatorIcEEEERNS_13basic_ostreamIT_T0_EES9_RKNS_12basic_stringIS6_S7_T1_EE, symObjAddr: 0x9F74, symBinAddr: 0x10000BDC4, symSize: 0x4C }
  - { offset: 0x1BEB1, size: 0x8, addend: 0x0, symName: __ZNSt3__112__to_addressB8ue170006IKcEEPT_S3_, symObjAddr: 0xA544, symBinAddr: 0x10000C394, symSize: 0x14 }
  - { offset: 0x1BF19, size: 0x8, addend: 0x0, symName: __ZNSt3__112__to_addressB8ue170006INS_8optionalIiEEEEPT_S4_, symObjAddr: 0xB188, symBinAddr: 0x10000CFD8, symSize: 0x14 }
  - { offset: 0x1BF4E, size: 0x8, addend: 0x0, symName: __ZNSt3__13maxB8ue170006ImEERKT_S3_S3_, symObjAddr: 0xB498, symBinAddr: 0x10000D2E8, symSize: 0x2C }
  - { offset: 0x1BF91, size: 0x8, addend: 0x0, symName: __ZNSt3__13maxB8ue170006ImNS_6__lessIvvEEEERKT_S5_S5_T0_, symObjAddr: 0xB5BC, symBinAddr: 0x10000D40C, symSize: 0x54 }
  - { offset: 0x1BFEB, size: 0x8, addend: 0x0, symName: __ZNSt3__119__allocate_at_leastB8ue170006INS_9allocatorINS_8optionalIiEEEEEENS_19__allocation_resultINS_16allocator_traitsIT_E7pointerEEERS7_m, symObjAddr: 0xB720, symBinAddr: 0x10000D570, symSize: 0x40 }
  - { offset: 0x1C02E, size: 0x8, addend: 0x0, symName: __ZNSt3__142__uninitialized_allocator_move_if_noexceptB8ue170006INS_9allocatorINS_8optionalIiEEEENS_16reverse_iteratorIPS3_EES7_S3_vEET1_RT_T0_SB_S8_, symObjAddr: 0xBA58, symBinAddr: 0x10000D8A8, symSize: 0x78 }
  - { offset: 0x1C0AB, size: 0x8, addend: 0x0, symName: __ZNSt3__14swapB8ue170006IPNS_8optionalIiEEEENS_9enable_ifIXaasr21is_move_constructibleIT_EE5valuesr18is_move_assignableIS5_EE5valueEvE4typeERS5_S8_, symObjAddr: 0xBB1C, symBinAddr: 0x10000D96C, symSize: 0x3C }
  - { offset: 0x1C0FC, size: 0x8, addend: 0x0, symName: __ZNSt3__14moveB8ue170006INS_16reverse_iteratorIPNS_8optionalIiEEEES5_EET0_T_S7_S6_, symObjAddr: 0xBC4C, symBinAddr: 0x10000DA9C, symSize: 0x78 }
  - { offset: 0x1C156, size: 0x8, addend: 0x0, symName: __ZNSt3__16__moveB8ue170006INS_17_ClassicAlgPolicyENS_16reverse_iteratorIPNS_8optionalIiEEEES6_S6_EENS_4pairIT0_T2_EES8_T1_S9_, symObjAddr: 0xBCC4, symBinAddr: 0x10000DB14, symSize: 0x64 }
  - { offset: 0x1C1C2, size: 0x8, addend: 0x0, symName: __ZNSt3__123__dispatch_copy_or_moveB8ue170006INS_17_ClassicAlgPolicyENS_11__move_loopIS1_EENS_14__move_trivialENS_16reverse_iteratorIPNS_8optionalIiEEEES9_S9_EENS_4pairIT2_T4_EESB_T3_SC_, symObjAddr: 0xBD28, symBinAddr: 0x10000DB78, symSize: 0x64 }
  - { offset: 0x1C240, size: 0x8, addend: 0x0, symName: __ZNSt3__121__unwrap_and_dispatchB8ue170006INS_10__overloadINS_11__move_loopINS_17_ClassicAlgPolicyEEENS_14__move_trivialEEENS_16reverse_iteratorIPNS_8optionalIiEEEESB_SB_Li0EEENS_4pairIT0_T2_EESD_T1_SE_, symObjAddr: 0xBD8C, symBinAddr: 0x10000DBDC, symSize: 0x12C }
  - { offset: 0x1C2D0, size: 0x8, addend: 0x0, symName: __ZNSt3__114__unwrap_rangeB8ue170006INS_16reverse_iteratorIPNS_8optionalIiEEEES5_EENS_4pairIT0_S7_EET_S9_, symObjAddr: 0xBEB8, symBinAddr: 0x10000DD08, symSize: 0x84 }
  - { offset: 0x1C4C9, size: 0x8, addend: 0x0, symName: __ZNSt3__113__unwrap_iterB8ue170006INS_16reverse_iteratorIPNS_8optionalIiEEEENS_18__unwrap_iter_implIS5_Lb0EEELi0EEEDTclsrT0_8__unwrapclsr3stdE7declvalIT_EEEES9_, symObjAddr: 0xBFE4, symBinAddr: 0x10000DE34, symSize: 0x44 }
  - { offset: 0x1C50D, size: 0x8, addend: 0x0, symName: __ZNSt3__19make_pairB8ue170006INS_16reverse_iteratorIPNS_8optionalIiEEEES5_EENS_4pairINS_18__unwrap_ref_decayIT_E4typeENS7_IT0_E4typeEEEOS8_OSB_, symObjAddr: 0xC028, symBinAddr: 0x10000DE78, symSize: 0x38 }
  - { offset: 0x1C55C, size: 0x8, addend: 0x0, symName: __ZNSt3__114__rewrap_rangeB8ue170006INS_16reverse_iteratorIPNS_8optionalIiEEEES5_EET_S6_T0_, symObjAddr: 0xC060, symBinAddr: 0x10000DEB0, symSize: 0x5C }
  - { offset: 0x1C5A8, size: 0x8, addend: 0x0, symName: __ZNSt3__113__rewrap_iterB8ue170006INS_16reverse_iteratorIPNS_8optionalIiEEEES5_NS_18__unwrap_iter_implIS5_Lb0EEEEET_S8_T0_, symObjAddr: 0xC0BC, symBinAddr: 0x10000DF0C, symSize: 0x74 }
  - { offset: 0x1C5FD, size: 0x8, addend: 0x0, symName: __ZNSt3__1neB8ue170006IPNS_8optionalIiEES3_EEbRKNS_16reverse_iteratorIT_EERKNS4_IT0_EE, symObjAddr: 0xC130, symBinAddr: 0x10000DF80, symSize: 0x48 }
  - { offset: 0x1C785, size: 0x8, addend: 0x0, symName: __ZNSt3__142__uninitialized_allocator_move_if_noexceptB8ue170006INS_9allocatorIiEENS_16reverse_iteratorIPiEES5_ivEET1_RT_T0_S9_S6_, symObjAddr: 0xD7D0, symBinAddr: 0x10000F620, symSize: 0x78 }
  - { offset: 0x1C802, size: 0x8, addend: 0x0, symName: __ZNSt3__14swapB8ue170006IPiEENS_9enable_ifIXaasr21is_move_constructibleIT_EE5valuesr18is_move_assignableIS3_EE5valueEvE4typeERS3_S6_, symObjAddr: 0xD894, symBinAddr: 0x10000F6E4, symSize: 0x3C }
  - { offset: 0x1C853, size: 0x8, addend: 0x0, symName: __ZNSt3__14moveB8ue170006INS_16reverse_iteratorIPiEES3_EET0_T_S5_S4_, symObjAddr: 0xD8D0, symBinAddr: 0x10000F720, symSize: 0x78 }
  - { offset: 0x1C8AD, size: 0x8, addend: 0x0, symName: __ZNSt3__16__moveB8ue170006INS_17_ClassicAlgPolicyENS_16reverse_iteratorIPiEES4_S4_EENS_4pairIT0_T2_EES6_T1_S7_, symObjAddr: 0xD948, symBinAddr: 0x10000F798, symSize: 0x64 }
  - { offset: 0x1C919, size: 0x8, addend: 0x0, symName: __ZNSt3__123__dispatch_copy_or_moveB8ue170006INS_17_ClassicAlgPolicyENS_11__move_loopIS1_EENS_14__move_trivialENS_16reverse_iteratorIPiEES7_S7_EENS_4pairIT2_T4_EES9_T3_SA_, symObjAddr: 0xD9AC, symBinAddr: 0x10000F7FC, symSize: 0x64 }
  - { offset: 0x1C997, size: 0x8, addend: 0x0, symName: __ZNSt3__121__unwrap_and_dispatchB8ue170006INS_10__overloadINS_11__move_loopINS_17_ClassicAlgPolicyEEENS_14__move_trivialEEENS_16reverse_iteratorIPiEES9_S9_Li0EEENS_4pairIT0_T2_EESB_T1_SC_, symObjAddr: 0xDA10, symBinAddr: 0x10000F860, symSize: 0x12C }
  - { offset: 0x1CA27, size: 0x8, addend: 0x0, symName: __ZNSt3__114__unwrap_rangeB8ue170006INS_16reverse_iteratorIPiEES3_EENS_4pairIT0_S5_EET_S7_, symObjAddr: 0xDB3C, symBinAddr: 0x10000F98C, symSize: 0x84 }
  - { offset: 0x1CB47, size: 0x8, addend: 0x0, symName: __ZNSt3__113__unwrap_iterB8ue170006INS_16reverse_iteratorIPiEENS_18__unwrap_iter_implIS3_Lb0EEELi0EEEDTclsrT0_8__unwrapclsr3stdE7declvalIT_EEEES7_, symObjAddr: 0xDC60, symBinAddr: 0x10000FAB0, symSize: 0x44 }
  - { offset: 0x1CB8B, size: 0x8, addend: 0x0, symName: __ZNSt3__19make_pairB8ue170006INS_16reverse_iteratorIPiEES3_EENS_4pairINS_18__unwrap_ref_decayIT_E4typeENS5_IT0_E4typeEEEOS6_OS9_, symObjAddr: 0xDCA4, symBinAddr: 0x10000FAF4, symSize: 0x38 }
  - { offset: 0x1CBDA, size: 0x8, addend: 0x0, symName: __ZNSt3__114__rewrap_rangeB8ue170006INS_16reverse_iteratorIPiEES3_EET_S4_T0_, symObjAddr: 0xDCDC, symBinAddr: 0x10000FB2C, symSize: 0x5C }
  - { offset: 0x1CC26, size: 0x8, addend: 0x0, symName: __ZNSt3__113__rewrap_iterB8ue170006INS_16reverse_iteratorIPiEES3_NS_18__unwrap_iter_implIS3_Lb0EEEEET_S6_T0_, symObjAddr: 0xDD38, symBinAddr: 0x10000FB88, symSize: 0x74 }
  - { offset: 0x1CC7B, size: 0x8, addend: 0x0, symName: __ZNSt3__1neB8ue170006IPiS1_EEbRKNS_16reverse_iteratorIT_EERKNS2_IT0_EE, symObjAddr: 0xDDAC, symBinAddr: 0x10000FBFC, symSize: 0x48 }
  - { offset: 0x1CD33, size: 0x8, addend: 0x0, symName: __ZNSt3__113__countl_zeroB8ue170006IjEEiT_, symObjAddr: 0xE5CC, symBinAddr: 0x10001041C, symSize: 0x54 }
  - { offset: 0x1CD68, size: 0x8, addend: 0x0, symName: __ZNSt3__112__libcpp_clzB8ue170006Ej, symObjAddr: 0xEA68, symBinAddr: 0x1000108B8, symSize: 0x18 }
  - { offset: 0x1CF43, size: 0x8, addend: 0x0, symName: __ZNSt3__118generate_canonicalB8ue170006IdLm53ENS_23mersenne_twister_engineIjLm32ELm624ELm397ELm31ELj2567483615ELm11ELj4294967295ELm7ELj2636928640ELm15ELj4022730752ELm18ELj1812433253EEEEET_RT1_, symObjAddr: 0xEF48, symBinAddr: 0x100010D98, symSize: 0x114 }
  - { offset: 0x1D009, size: 0x8, addend: 0x0, symName: __ZNSt3__1neB8ue170006IPdEEbRKNS_11__wrap_iterIT_EES6_, symObjAddr: 0xF2F8, symBinAddr: 0x100011148, symSize: 0x34 }
  - { offset: 0x1D04C, size: 0x8, addend: 0x0, symName: __ZNSt3__122__make_exception_guardB8ue170006INS_6vectorIdNS_9allocatorIdEEE16__destroy_vectorEEENS_28__exception_guard_exceptionsIT_EES7_, symObjAddr: 0xF650, symBinAddr: 0x1000114A0, symSize: 0x40 }
  - { offset: 0x1D081, size: 0x8, addend: 0x0, symName: __ZNSt3__119__allocate_at_leastB8ue170006INS_9allocatorIdEEEENS_19__allocation_resultINS_16allocator_traitsIT_E7pointerEEERS5_m, symObjAddr: 0xFA50, symBinAddr: 0x1000118A0, symSize: 0x40 }
  - { offset: 0x1D0C4, size: 0x8, addend: 0x0, symName: __ZNSt3__112__to_addressB8ue170006IdEEPT_S2_, symObjAddr: 0xFD74, symBinAddr: 0x100011BC4, symSize: 0x14 }
  - { offset: 0x1D0F9, size: 0x8, addend: 0x0, symName: __ZNSt3__130__uninitialized_allocator_copyB8ue170006INS_9allocatorIdEEPKdS4_PdEET2_RT_T0_T1_S6_, symObjAddr: 0xFE24, symBinAddr: 0x100011C74, symSize: 0x80 }
  - { offset: 0x1D196, size: 0x8, addend: 0x0, symName: __ZNSt3__114__unwrap_rangeB8ue170006IPKdS2_EENS_4pairIT0_S4_EET_S6_, symObjAddr: 0xFF14, symBinAddr: 0x100011D64, symSize: 0x60 }
  - { offset: 0x1D1E2, size: 0x8, addend: 0x0, symName: __ZNSt3__135__uninitialized_allocator_copy_implB8ue170006INS_9allocatorIdEEKdddLPv0EEEPT2_RT_PT0_SA_S6_, symObjAddr: 0xFF74, symBinAddr: 0x100011DC4, symSize: 0x38 }
  - { offset: 0x1D263, size: 0x8, addend: 0x0, symName: __ZNSt3__113__unwrap_iterB8ue170006IPdNS_18__unwrap_iter_implIS1_Lb1EEELi0EEEDTclsrT0_8__unwrapclsr3stdE7declvalIT_EEEES5_, symObjAddr: 0xFFAC, symBinAddr: 0x100011DFC, symSize: 0x24 }
  - { offset: 0x1D2A7, size: 0x8, addend: 0x0, symName: __ZNSt3__113__rewrap_iterB8ue170006IPdS1_NS_18__unwrap_iter_implIS1_Lb1EEEEET_S4_T0_, symObjAddr: 0xFFD0, symBinAddr: 0x100011E20, symSize: 0x3C }
  - { offset: 0x1D2FC, size: 0x8, addend: 0x0, symName: __ZNSt3__19make_pairB8ue170006IPKdS2_EENS_4pairINS_18__unwrap_ref_decayIT_E4typeENS4_IT0_E4typeEEEOS5_OS8_, symObjAddr: 0x1000C, symBinAddr: 0x100011E5C, symSize: 0x38 }
  - { offset: 0x1D34B, size: 0x8, addend: 0x0, symName: __ZNSt3__113__unwrap_iterB8ue170006IPKdNS_18__unwrap_iter_implIS2_Lb1EEELi0EEEDTclsrT0_8__unwrapclsr3stdE7declvalIT_EEEES6_, symObjAddr: 0x10044, symBinAddr: 0x100011E94, symSize: 0x24 }
  - { offset: 0x1D4B6, size: 0x8, addend: 0x0, symName: __ZNSt3__112__to_addressB8ue170006IKdEEPT_S3_, symObjAddr: 0x100FC, symBinAddr: 0x100011F4C, symSize: 0x14 }
  - { offset: 0x1D4EB, size: 0x8, addend: 0x0, symName: __ZNSt3__14copyB8ue170006IPKdPdEET0_T_S5_S4_, symObjAddr: 0x10110, symBinAddr: 0x100011F60, symSize: 0x40 }
  - { offset: 0x1D545, size: 0x8, addend: 0x0, symName: __ZNSt3__16__copyB8ue170006INS_17_ClassicAlgPolicyEPKdS3_PdEENS_4pairIT0_T2_EES6_T1_S7_, symObjAddr: 0x10150, symBinAddr: 0x100011FA0, symSize: 0x44 }
  - { offset: 0x1D5B1, size: 0x8, addend: 0x0, symName: __ZNSt3__123__dispatch_copy_or_moveB8ue170006INS_17_ClassicAlgPolicyENS_11__copy_loopIS1_EENS_14__copy_trivialEPKdS6_PdEENS_4pairIT2_T4_EES9_T3_SA_, symObjAddr: 0x10194, symBinAddr: 0x100011FE4, symSize: 0x44 }
  - { offset: 0x1D62F, size: 0x8, addend: 0x0, symName: __ZNSt3__121__unwrap_and_dispatchB8ue170006INS_10__overloadINS_11__copy_loopINS_17_ClassicAlgPolicyEEENS_14__copy_trivialEEEPKdS8_PdLi0EEENS_4pairIT0_T2_EESB_T1_SC_, symObjAddr: 0x101D8, symBinAddr: 0x100012028, symSize: 0xB4 }
  - { offset: 0x1D7C0, size: 0x8, addend: 0x0, symName: __ZNSt3__19make_pairB8ue170006IPKdPdEENS_4pairINS_18__unwrap_ref_decayIT_E4typeENS5_IT0_E4typeEEEOS6_OS9_, symObjAddr: 0x102D4, symBinAddr: 0x100012124, symSize: 0x38 }
  - { offset: 0x1D80F, size: 0x8, addend: 0x0, symName: __ZNSt3__114__rewrap_rangeB8ue170006IPKdS2_EET_S3_T0_, symObjAddr: 0x1030C, symBinAddr: 0x10001215C, symSize: 0x2C }
  - { offset: 0x1D85B, size: 0x8, addend: 0x0, symName: __ZNSt3__119__copy_trivial_implB8ue170006IKddEENS_4pairIPT_PT0_EES4_S4_S6_, symObjAddr: 0x10338, symBinAddr: 0x100012188, symSize: 0x80 }
  - { offset: 0x1D8C3, size: 0x8, addend: 0x0, symName: __ZNSt3__119__constexpr_memmoveB8ue170006IdKdLi0EEEPT_S3_PT0_NS_15__element_countE, symObjAddr: 0x103B8, symBinAddr: 0x100012208, symSize: 0x64 }
  - { offset: 0x1D931, size: 0x8, addend: 0x0, symName: __ZNSt3__19make_pairB8ue170006IRPKdPdEENS_4pairINS_18__unwrap_ref_decayIT_E4typeENS6_IT0_E4typeEEEOS7_OSA_, symObjAddr: 0x1041C, symBinAddr: 0x10001226C, symSize: 0x38 }
  - { offset: 0x1D980, size: 0x8, addend: 0x0, symName: __ZNSt3__113__rewrap_iterB8ue170006IPKdS2_NS_18__unwrap_iter_implIS2_Lb1EEEEET_S5_T0_, symObjAddr: 0x10534, symBinAddr: 0x100012384, symSize: 0x3C }
  - { offset: 0x1DA28, size: 0x8, addend: 0x0, symName: __ZNSt3__1eqB8ue170006IPdEEbRKNS_11__wrap_iterIT_EES6_, symObjAddr: 0x10B50, symBinAddr: 0x1000129A0, symSize: 0x48 }
  - { offset: 0x1DA6B, size: 0x8, addend: 0x0, symName: __ZNSt3__112__to_addressB8ue170006INS_19normal_distributionIdEEEEPT_S4_, symObjAddr: 0x10E44, symBinAddr: 0x100012C94, symSize: 0x14 }
  - { offset: 0x1DAA0, size: 0x8, addend: 0x0, symName: __ZNSt3__119__allocate_at_leastB8ue170006INS_9allocatorINS_19normal_distributionIdEEEEEENS_19__allocation_resultINS_16allocator_traitsIT_E7pointerEEERS7_m, symObjAddr: 0x11458, symBinAddr: 0x1000132A8, symSize: 0x40 }
  - { offset: 0x1DAE3, size: 0x8, addend: 0x0, symName: __ZNSt3__142__uninitialized_allocator_move_if_noexceptB8ue170006INS_9allocatorINS_19normal_distributionIdEEEENS_16reverse_iteratorIPS3_EES7_S3_vEET1_RT_T0_SB_S8_, symObjAddr: 0x116C4, symBinAddr: 0x100013514, symSize: 0x78 }
  - { offset: 0x1DB60, size: 0x8, addend: 0x0, symName: __ZNSt3__14swapB8ue170006IPNS_19normal_distributionIdEEEENS_9enable_ifIXaasr21is_move_constructibleIT_EE5valuesr18is_move_assignableIS5_EE5valueEvE4typeERS5_S8_, symObjAddr: 0x11788, symBinAddr: 0x1000135D8, symSize: 0x3C }
  - { offset: 0x1DBB1, size: 0x8, addend: 0x0, symName: __ZNSt3__14moveB8ue170006INS_16reverse_iteratorIPNS_19normal_distributionIdEEEES5_EET0_T_S7_S6_, symObjAddr: 0x118B8, symBinAddr: 0x100013708, symSize: 0x78 }
  - { offset: 0x1DC0B, size: 0x8, addend: 0x0, symName: __ZNSt3__16__moveB8ue170006INS_17_ClassicAlgPolicyENS_16reverse_iteratorIPNS_19normal_distributionIdEEEES6_S6_EENS_4pairIT0_T2_EES8_T1_S9_, symObjAddr: 0x11930, symBinAddr: 0x100013780, symSize: 0x64 }
  - { offset: 0x1DC77, size: 0x8, addend: 0x0, symName: __ZNSt3__123__dispatch_copy_or_moveB8ue170006INS_17_ClassicAlgPolicyENS_11__move_loopIS1_EENS_14__move_trivialENS_16reverse_iteratorIPNS_19normal_distributionIdEEEES9_S9_EENS_4pairIT2_T4_EESB_T3_SC_, symObjAddr: 0x11994, symBinAddr: 0x1000137E4, symSize: 0x64 }
  - { offset: 0x1DCF5, size: 0x8, addend: 0x0, symName: __ZNSt3__121__unwrap_and_dispatchB8ue170006INS_10__overloadINS_11__move_loopINS_17_ClassicAlgPolicyEEENS_14__move_trivialEEENS_16reverse_iteratorIPNS_19normal_distributionIdEEEESB_SB_Li0EEENS_4pairIT0_T2_EESD_T1_SE_, symObjAddr: 0x119F8, symBinAddr: 0x100013848, symSize: 0x12C }
  - { offset: 0x1DD85, size: 0x8, addend: 0x0, symName: __ZNSt3__114__unwrap_rangeB8ue170006INS_16reverse_iteratorIPNS_19normal_distributionIdEEEES5_EENS_4pairIT0_S7_EET_S9_, symObjAddr: 0x11B24, symBinAddr: 0x100013974, symSize: 0x84 }
  - { offset: 0x1DEA5, size: 0x8, addend: 0x0, symName: __ZNSt3__113__unwrap_iterB8ue170006INS_16reverse_iteratorIPNS_19normal_distributionIdEEEENS_18__unwrap_iter_implIS5_Lb0EEELi0EEEDTclsrT0_8__unwrapclsr3stdE7declvalIT_EEEES9_, symObjAddr: 0x11C50, symBinAddr: 0x100013AA0, symSize: 0x44 }
  - { offset: 0x1DEE9, size: 0x8, addend: 0x0, symName: __ZNSt3__19make_pairB8ue170006INS_16reverse_iteratorIPNS_19normal_distributionIdEEEES5_EENS_4pairINS_18__unwrap_ref_decayIT_E4typeENS7_IT0_E4typeEEEOS8_OSB_, symObjAddr: 0x11C94, symBinAddr: 0x100013AE4, symSize: 0x38 }
  - { offset: 0x1DF38, size: 0x8, addend: 0x0, symName: __ZNSt3__114__rewrap_rangeB8ue170006INS_16reverse_iteratorIPNS_19normal_distributionIdEEEES5_EET_S6_T0_, symObjAddr: 0x11CCC, symBinAddr: 0x100013B1C, symSize: 0x5C }
  - { offset: 0x1DF84, size: 0x8, addend: 0x0, symName: __ZNSt3__113__rewrap_iterB8ue170006INS_16reverse_iteratorIPNS_19normal_distributionIdEEEES5_NS_18__unwrap_iter_implIS5_Lb0EEEEET_S8_T0_, symObjAddr: 0x11D28, symBinAddr: 0x100013B78, symSize: 0x74 }
  - { offset: 0x1DFD9, size: 0x8, addend: 0x0, symName: __ZNSt3__1neB8ue170006IPNS_19normal_distributionIdEES3_EEbRKNS_16reverse_iteratorIT_EERKNS4_IT0_EE, symObjAddr: 0x11D9C, symBinAddr: 0x100013BEC, symSize: 0x48 }
  - { offset: 0x1E091, size: 0x8, addend: 0x0, symName: __ZNSt3__113__countl_zeroB8ue170006ImEEiT_, symObjAddr: 0x12488, symBinAddr: 0x1000142D8, symSize: 0x54 }
  - { offset: 0x1E0C6, size: 0x8, addend: 0x0, symName: __ZNSt3__112__libcpp_clzB8ue170006Em, symObjAddr: 0x1294C, symBinAddr: 0x10001479C, symSize: 0x1C }
  - { offset: 0x1E0F2, size: 0x8, addend: 0x0, symName: __ZNSt3__125__throw_bad_function_callB8ue170006Ev, symObjAddr: 0x12D2C, symBinAddr: 0x100014B7C, symSize: 0x38 }
  - { offset: 0x1E142, size: 0x8, addend: 0x0, symName: __ZNSt3__127__throw_bad_optional_accessB8ue170006Ev, symObjAddr: 0x12FDC, symBinAddr: 0x100014E2C, symSize: 0x38 }
  - { offset: 0x1F9C4, size: 0x8, addend: 0x0, symName: __ZSt28__throw_bad_array_new_lengthB8ue170006v, symObjAddr: 0x38A8, symBinAddr: 0x1000056F8, symSize: 0x34 }
  - { offset: 0x1FA3F, size: 0x8, addend: 0x0, symName: __Z22generateRandomIntegersi16DistributionTypedd, symObjAddr: 0xA030, symBinAddr: 0x10000BE80, symSize: 0x218 }
  - { offset: 0x1FA68, size: 0x8, addend: 0x0, symName: __ZZ22generateRandomIntegersi16DistributionTypeddE2rd, symObjAddr: 0x13D18, symBinAddr: 0x10001C000, symSize: 0x0 }
  - { offset: 0x1FA7D, size: 0x8, addend: 0x0, symName: __ZZ22generateRandomIntegersi16DistributionTypeddE6engine, symObjAddr: 0x13D28, symBinAddr: 0x10001C010, symSize: 0x0 }
  - { offset: 0x210D6, size: 0x8, addend: 0x0, symName: __ZNSt3__16vectorINS_8optionalIiEENS_9allocatorIS2_EEE26__swap_out_circular_bufferERNS_14__split_bufferIS2_RS4_EE, symObjAddr: 0xAFAC, symBinAddr: 0x10000CDFC, symSize: 0x110 }
  - { offset: 0x21136, size: 0x8, addend: 0x0, symName: __ZNSt3__16vectorIiNS_9allocatorIiEEE26__swap_out_circular_bufferERNS_14__split_bufferIiRS2_EE, symObjAddr: 0xD468, symBinAddr: 0x10000F2B8, symSize: 0x110 }
  - { offset: 0x211BE, size: 0x8, addend: 0x0, symName: __ZNSt3__124uniform_int_distributionIiEclINS_23mersenne_twister_engineIjLm32ELm624ELm397ELm31ELj2567483615ELm11ELj4294967295ELm7ELj2636928640ELm15ELj4022730752ELm18ELj1812433253EEEEEiRT_RKNS1_10param_typeE, symObjAddr: 0xE3B4, symBinAddr: 0x100010204, symSize: 0x188 }
  - { offset: 0x2159B, size: 0x8, addend: 0x0, symName: __ZNSt3__16vectorINS_19normal_distributionIdEENS_9allocatorIS2_EEE26__swap_out_circular_bufferERNS_14__split_bufferIS2_RS4_EE, symObjAddr: 0x11058, symBinAddr: 0x100012EA8, symSize: 0x110 }
  - { offset: 0x2161D, size: 0x8, addend: 0x0, symName: __ZNSt3__124uniform_int_distributionImEclINS_23mersenne_twister_engineIjLm32ELm624ELm397ELm31ELj2567483615ELm11ELj4294967295ELm7ELj2636928640ELm15ELj4022730752ELm18ELj1812433253EEEEEmRT_RKNS1_10param_typeE, symObjAddr: 0x12284, symBinAddr: 0x1000140D4, symSize: 0x174 }
  - { offset: 0x21712, size: 0x8, addend: 0x0, symName: _main, symObjAddr: 0x0, symBinAddr: 0x100001E50, symSize: 0x76C }
  - { offset: 0x21B4A, size: 0x8, addend: 0x0, symName: __ZNSt3__114basic_ofstreamIcNS_11char_traitsIcEEEC1EPKcj, symObjAddr: 0x76C, symBinAddr: 0x1000025BC, symSize: 0x164 }
  - { offset: 0x21B94, size: 0x8, addend: 0x0, symName: __ZNKSt3__114basic_ofstreamIcNS_11char_traitsIcEEE7is_openEv, symObjAddr: 0x8D0, symBinAddr: 0x100002720, symSize: 0x2C }
  - { offset: 0x21BBC, size: 0x8, addend: 0x0, symName: __ZNSt3__113basic_ostreamIcNS_11char_traitsIcEEElsB8ue170006EPFRS3_S4_E, symObjAddr: 0x944, symBinAddr: 0x100002794, symSize: 0x2C }
  - { offset: 0x21BF0, size: 0x8, addend: 0x0, symName: __ZNSt3__16vectorIiNS_9allocatorIiEEEC1B8ue170006ESt16initializer_listIiE, symObjAddr: 0x9C8, symBinAddr: 0x100002818, symSize: 0x3C }
  - { offset: 0x21C2B, size: 0x8, addend: 0x0, symName: __ZNSt3__16vectorI16DistributionTypeNS_9allocatorIS1_EEEC1B8ue170006ESt16initializer_listIS1_E, symObjAddr: 0xA04, symBinAddr: 0x100002854, symSize: 0x3C }
  - { offset: 0x21C65, size: 0x8, addend: 0x0, symName: __Z16simpleModuleHashii, symObjAddr: 0xA40, symBinAddr: 0x100002890, symSize: 0x64 }
  - { offset: 0x21CAE, size: 0x8, addend: 0x0, symName: __ZNSt3__18functionIFiiiEEC1IPS1_vEET_, symObjAddr: 0xAA4, symBinAddr: 0x1000028F4, symSize: 0x34 }
  - { offset: 0x21CF2, size: 0x8, addend: 0x0, symName: __Z11murmurHash3ii, symObjAddr: 0xAD8, symBinAddr: 0x100002928, symSize: 0x4C }
  - { offset: 0x21D3A, size: 0x8, addend: 0x0, symName: __Z12divisionHashii, symObjAddr: 0xB24, symBinAddr: 0x100002974, symSize: 0x64 }
  - { offset: 0x21D83, size: 0x8, addend: 0x0, symName: __ZNSt3__18functionIFiiiEED1Ev, symObjAddr: 0xC2C, symBinAddr: 0x100002A7C, symSize: 0x2C }
  - { offset: 0x21DAF, size: 0x8, addend: 0x0, symName: __ZNSt3__16vectorINS_8functionIFiiiEEENS_9allocatorIS3_EEEC1B8ue170006ESt16initializer_listIS3_E, symObjAddr: 0xC58, symBinAddr: 0x100002AA8, symSize: 0x3C }
  - { offset: 0x21DEA, size: 0x8, addend: 0x0, symName: __Z20simpleModuleHashNamev, symObjAddr: 0xC94, symBinAddr: 0x100002AE4, symSize: 0x30 }
  - { offset: 0x21E08, size: 0x8, addend: 0x0, symName: __Z15murmurHash3Namev, symObjAddr: 0xCC4, symBinAddr: 0x100002B14, symSize: 0x30 }
  - { offset: 0x21E26, size: 0x8, addend: 0x0, symName: __Z16divisionHashNamev, symObjAddr: 0xCF4, symBinAddr: 0x100002B44, symSize: 0x30 }
  - { offset: 0x21E44, size: 0x8, addend: 0x0, symName: __Z22multiplicationHashNamev, symObjAddr: 0xD24, symBinAddr: 0x100002B74, symSize: 0x30 }
  - { offset: 0x21E62, size: 0x8, addend: 0x0, symName: __ZNSt3__16vectorINS_12basic_stringIcNS_11char_traitsIcEENS_9allocatorIcEEEENS4_IS6_EEEC1B8ue170006ESt16initializer_listIS6_E, symObjAddr: 0xD54, symBinAddr: 0x100002BA4, symSize: 0x3C }
  - { offset: 0x21E9D, size: 0x8, addend: 0x0, symName: __ZNSt3__16vectorIiNS_9allocatorIiEEE5beginB8ue170006Ev, symObjAddr: 0xD90, symBinAddr: 0x100002BE0, symSize: 0x30 }
  - { offset: 0x21EC5, size: 0x8, addend: 0x0, symName: __ZNSt3__16vectorIiNS_9allocatorIiEEE3endB8ue170006Ev, symObjAddr: 0xDC0, symBinAddr: 0x100002C10, symSize: 0x30 }
  - { offset: 0x21EED, size: 0x8, addend: 0x0, symName: __ZNKSt3__111__wrap_iterIPiEdeB8ue170006Ev, symObjAddr: 0xE24, symBinAddr: 0x100002C74, symSize: 0x18 }
  - { offset: 0x21F13, size: 0x8, addend: 0x0, symName: __ZNSt3__16vectorI16DistributionTypeNS_9allocatorIS1_EEE5beginB8ue170006Ev, symObjAddr: 0xE3C, symBinAddr: 0x100002C8C, symSize: 0x30 }
  - { offset: 0x21F3B, size: 0x8, addend: 0x0, symName: __ZNSt3__16vectorI16DistributionTypeNS_9allocatorIS1_EEE3endB8ue170006Ev, symObjAddr: 0xE6C, symBinAddr: 0x100002CBC, symSize: 0x30 }
  - { offset: 0x21F63, size: 0x8, addend: 0x0, symName: __ZNKSt3__111__wrap_iterIP16DistributionTypeEdeB8ue170006Ev, symObjAddr: 0xED0, symBinAddr: 0x100002D20, symSize: 0x18 }
  - { offset: 0x21F89, size: 0x8, addend: 0x0, symName: __ZNSt3__16vectorINS_8functionIFiiiEEENS_9allocatorIS3_EEE5beginB8ue170006Ev, symObjAddr: 0xEE8, symBinAddr: 0x100002D38, symSize: 0x30 }
  - { offset: 0x21FB1, size: 0x8, addend: 0x0, symName: __ZNSt3__16vectorINS_8functionIFiiiEEENS_9allocatorIS3_EEE3endB8ue170006Ev, symObjAddr: 0xF18, symBinAddr: 0x100002D68, symSize: 0x30 }
  - { offset: 0x21FD9, size: 0x8, addend: 0x0, symName: __ZNKSt3__111__wrap_iterIPNS_8functionIFiiiEEEEdeB8ue170006Ev, symObjAddr: 0xF7C, symBinAddr: 0x100002DCC, symSize: 0x18 }
  - { offset: 0x21FFF, size: 0x8, addend: 0x0, symName: __ZNSt3__18functionIFiiiEEC1ERKS2_, symObjAddr: 0xF94, symBinAddr: 0x100002DE4, symSize: 0x34 }
  - { offset: 0x2203A, size: 0x8, addend: 0x0, symName: __ZNSt3__16vectorINS_12basic_stringIcNS_11char_traitsIcEENS_9allocatorIcEEEENS4_IS6_EEEixB8ue170006Em, symObjAddr: 0xFC8, symBinAddr: 0x100002E18, symSize: 0x2C }
  - { offset: 0x22116, size: 0x8, addend: 0x0, symName: __ZN13LinearProbingC1ENSt3__18functionIFiiiEEENS0_12basic_stringIcNS0_11char_traitsIcEENS0_9allocatorIcEEEE, symObjAddr: 0xFF4, symBinAddr: 0x100002E44, symSize: 0x3C }
  - { offset: 0x2215E, size: 0x8, addend: 0x0, symName: __Z14run_experimentI13LinearProbingEviRKT_16DistributionTypeRNSt3__114basic_ofstreamIcNS5_11char_traitsIcEEEE, symObjAddr: 0x1030, symBinAddr: 0x100002E80, symSize: 0x58C }
  - { offset: 0x2226F, size: 0x8, addend: 0x0, symName: __ZN13LinearProbingD1Ev, symObjAddr: 0x15CC, symBinAddr: 0x10000341C, symSize: 0x2C }
  - { offset: 0x2229B, size: 0x8, addend: 0x0, symName: __ZNSt3__111__wrap_iterIPNS_8functionIFiiiEEEEppB8ue170006Ev, symObjAddr: 0x15F8, symBinAddr: 0x100003448, symSize: 0x20 }
  - { offset: 0x222C1, size: 0x8, addend: 0x0, symName: __ZNSt3__111__wrap_iterIP16DistributionTypeEppB8ue170006Ev, symObjAddr: 0x1618, symBinAddr: 0x100003468, symSize: 0x20 }
  - { offset: 0x222E7, size: 0x8, addend: 0x0, symName: __ZNSt3__111__wrap_iterIPiEppB8ue170006Ev, symObjAddr: 0x1638, symBinAddr: 0x100003488, symSize: 0x20 }
  - { offset: 0x2230D, size: 0x8, addend: 0x0, symName: __ZNSt3__114basic_ofstreamIcNS_11char_traitsIcEEE5closeEv, symObjAddr: 0x1658, symBinAddr: 0x1000034A8, symSize: 0x58 }
  - { offset: 0x22335, size: 0x8, addend: 0x0, symName: __ZNSt3__16vectorINS_12basic_stringIcNS_11char_traitsIcEENS_9allocatorIcEEEENS4_IS6_EEED1B8ue170006Ev, symObjAddr: 0x16B0, symBinAddr: 0x100003500, symSize: 0x2C }
  - { offset: 0x2235F, size: 0x8, addend: 0x0, symName: __ZNSt3__16vectorINS_8functionIFiiiEEENS_9allocatorIS3_EEED1B8ue170006Ev, symObjAddr: 0x16DC, symBinAddr: 0x10000352C, symSize: 0x2C }
  - { offset: 0x22389, size: 0x8, addend: 0x0, symName: __ZNSt3__16vectorI16DistributionTypeNS_9allocatorIS1_EEED1B8ue170006Ev, symObjAddr: 0x1708, symBinAddr: 0x100003558, symSize: 0x2C }
  - { offset: 0x223B3, size: 0x8, addend: 0x0, symName: __ZNSt3__16vectorIiNS_9allocatorIiEEED1B8ue170006Ev, symObjAddr: 0x1734, symBinAddr: 0x100003584, symSize: 0x2C }
  - { offset: 0x223E3, size: 0x8, addend: 0x0, symName: __ZNSt3__114basic_ofstreamIcNS_11char_traitsIcEEED1Ev, symObjAddr: 0x1760, symBinAddr: 0x1000035B0, symSize: 0x40 }
  - { offset: 0x22416, size: 0x8, addend: 0x0, symName: __ZNSt3__112basic_stringIcNS_11char_traitsIcEENS_9allocatorIcEEEC1B8ue170006ILi0EEEPKc, symObjAddr: 0x17A0, symBinAddr: 0x1000035F0, symSize: 0x34 }
  - { offset: 0x22455, size: 0x8, addend: 0x0, symName: __ZNSt3__112basic_stringIcNS_11char_traitsIcEENS_9allocatorIcEEEC2B8ue170006ILi0EEEPKc, symObjAddr: 0x17D4, symBinAddr: 0x100003624, symSize: 0x58 }
  - { offset: 0x2249A, size: 0x8, addend: 0x0, symName: __ZNSt3__117__compressed_pairINS_12basic_stringIcNS_11char_traitsIcEENS_9allocatorIcEEE5__repES5_EC1B8ue170006INS_18__default_init_tagESA_EEOT_OT0_, symObjAddr: 0x182C, symBinAddr: 0x10000367C, symSize: 0x3C }
  - { offset: 0x224F2, size: 0x8, addend: 0x0, symName: __ZNSt3__111char_traitsIcE6lengthB8ue170006EPKc, symObjAddr: 0x1868, symBinAddr: 0x1000036B8, symSize: 0x34 }
  - { offset: 0x22515, size: 0x8, addend: 0x0, symName: __ZNSt3__117__compressed_pairINS_12basic_stringIcNS_11char_traitsIcEENS_9allocatorIcEEE5__repES5_EC2B8ue170006INS_18__default_init_tagESA_EEOT_OT0_, symObjAddr: 0x189C, symBinAddr: 0x1000036EC, symSize: 0x3C }
  - { offset: 0x2256D, size: 0x8, addend: 0x0, symName: __ZNSt3__122__compressed_pair_elemINS_12basic_stringIcNS_11char_traitsIcEENS_9allocatorIcEEE5__repELi0ELb0EEC2B8ue170006ENS_18__default_init_tagE, symObjAddr: 0x18D8, symBinAddr: 0x100003728, symSize: 0x14 }
  - { offset: 0x225A2, size: 0x8, addend: 0x0, symName: __ZNSt3__122__compressed_pair_elemINS_9allocatorIcEELi1ELb1EEC2B8ue170006ENS_18__default_init_tagE, symObjAddr: 0x18EC, symBinAddr: 0x10000373C, symSize: 0x2C }
  - { offset: 0x225D7, size: 0x8, addend: 0x0, symName: __ZNSt3__19allocatorIcEC2B8ue170006Ev, symObjAddr: 0x1918, symBinAddr: 0x100003768, symSize: 0x2C }
  - { offset: 0x22601, size: 0x8, addend: 0x0, symName: __ZNSt3__116__non_trivial_ifILb1ENS_9allocatorIcEEEC2B8ue170006Ev, symObjAddr: 0x1944, symBinAddr: 0x100003794, symSize: 0x14 }
  - { offset: 0x2262B, size: 0x8, addend: 0x0, symName: __ZNKSt3__111__wrap_iterIPiE4baseB8ue170006Ev, symObjAddr: 0x19D4, symBinAddr: 0x100003824, symSize: 0x18 }
  - { offset: 0x22651, size: 0x8, addend: 0x0, symName: __ZNKSt3__111__wrap_iterIP16DistributionTypeE4baseB8ue170006Ev, symObjAddr: 0x1A34, symBinAddr: 0x100003884, symSize: 0x18 }
  - { offset: 0x22677, size: 0x8, addend: 0x0, symName: __ZNKSt3__111__wrap_iterIPNS_8functionIFiiiEEEE4baseB8ue170006Ev, symObjAddr: 0x1A94, symBinAddr: 0x1000038E4, symSize: 0x18 }
  - { offset: 0x2269D, size: 0x8, addend: 0x0, symName: __ZN13LinearProbingC2ENSt3__18functionIFiiiEEENS0_12basic_stringIcNS0_11char_traitsIcEENS0_9allocatorIcEEEE, symObjAddr: 0x1AAC, symBinAddr: 0x1000038FC, symSize: 0x64 }
  - { offset: 0x226E5, size: 0x8, addend: 0x0, symName: __ZNSt3__18functionIFiiiEEC1EOS2_, symObjAddr: 0x1B10, symBinAddr: 0x100003960, symSize: 0x34 }
  - { offset: 0x22720, size: 0x8, addend: 0x0, symName: __ZNSt3__112basic_stringIcNS_11char_traitsIcEENS_9allocatorIcEEEC1B8ue170006EOS5_, symObjAddr: 0x1B44, symBinAddr: 0x100003994, symSize: 0x34 }
  - { offset: 0x22759, size: 0x8, addend: 0x0, symName: __ZNSt3__18functionIFiiiEEC2EOS2_, symObjAddr: 0x1B78, symBinAddr: 0x1000039C8, symSize: 0x34 }
  - { offset: 0x22794, size: 0x8, addend: 0x0, symName: __ZNSt3__110__function12__value_funcIFiiiEEC1B8ue170006EOS3_, symObjAddr: 0x1BAC, symBinAddr: 0x1000039FC, symSize: 0x34 }
  - { offset: 0x227CD, size: 0x8, addend: 0x0, symName: __ZNSt3__110__function12__value_funcIFiiiEEC2B8ue170006EOS3_, symObjAddr: 0x1BE0, symBinAddr: 0x100003A30, symSize: 0xD0 }
  - { offset: 0x22806, size: 0x8, addend: 0x0, symName: __ZNSt3__110__function12__value_funcIFiiiEE9__as_baseB8ue170006EPv, symObjAddr: 0x1CB0, symBinAddr: 0x100003B00, symSize: 0x14 }
  - { offset: 0x2282A, size: 0x8, addend: 0x0, symName: __ZNSt3__112basic_stringIcNS_11char_traitsIcEENS_9allocatorIcEEEC2B8ue170006EOS5_, symObjAddr: 0x1CC4, symBinAddr: 0x100003B14, symSize: 0x50 }
  - { offset: 0x22863, size: 0x8, addend: 0x0, symName: __ZNSt3__112basic_stringIcNS_11char_traitsIcEENS_9allocatorIcEEE14__default_initB8ue170006Ev, symObjAddr: 0x1D14, symBinAddr: 0x100003B64, symSize: 0x40 }
  - { offset: 0x22889, size: 0x8, addend: 0x0, symName: __ZNSt3__117__compressed_pairINS_12basic_stringIcNS_11char_traitsIcEENS_9allocatorIcEEE5__repES5_E5firstB8ue170006Ev, symObjAddr: 0x1D54, symBinAddr: 0x100003BA4, symSize: 0x24 }
  - { offset: 0x228AF, size: 0x8, addend: 0x0, symName: __ZNSt3__122__compressed_pair_elemINS_12basic_stringIcNS_11char_traitsIcEENS_9allocatorIcEEE5__repELi0ELb0EE5__getB8ue170006Ev, symObjAddr: 0x1D78, symBinAddr: 0x100003BC8, symSize: 0x14 }
  - { offset: 0x228D5, size: 0x8, addend: 0x0, symName: __ZN13LinearProbingD2Ev, symObjAddr: 0x1D8C, symBinAddr: 0x100003BDC, symSize: 0x44 }
  - { offset: 0x22901, size: 0x8, addend: 0x0, symName: __ZNSt3__114basic_ofstreamIcNS_11char_traitsIcEEED2Ev, symObjAddr: 0x1DD0, symBinAddr: 0x100003C20, symSize: 0x64 }
  - { offset: 0x2293B, size: 0x8, addend: 0x0, symName: __ZTv0_n24_NSt3__114basic_ofstreamIcNS_11char_traitsIcEEED1Ev, symObjAddr: 0x1E34, symBinAddr: 0x100003C84, symSize: 0x28 }
  - { offset: 0x22952, size: 0x8, addend: 0x0, symName: __ZNSt3__18functionIFiiiEED2Ev, symObjAddr: 0x1E5C, symBinAddr: 0x100003CAC, symSize: 0x2C }
  - { offset: 0x2297E, size: 0x8, addend: 0x0, symName: __ZNSt3__110__function12__value_funcIFiiiEED1B8ue170006Ev, symObjAddr: 0x1E88, symBinAddr: 0x100003CD8, symSize: 0x2C }
  - { offset: 0x229A8, size: 0x8, addend: 0x0, symName: __ZNSt3__110__function12__value_funcIFiiiEED2B8ue170006Ev, symObjAddr: 0x1EB4, symBinAddr: 0x100003D04, symSize: 0x90 }
  - { offset: 0x229D2, size: 0x8, addend: 0x0, symName: __ZNSt3__16vectorIiNS_9allocatorIiEEED2B8ue170006Ev, symObjAddr: 0x1F44, symBinAddr: 0x100003D94, symSize: 0x44 }
  - { offset: 0x229FC, size: 0x8, addend: 0x0, symName: __ZNSt3__16vectorIiNS_9allocatorIiEEE16__destroy_vectorC1B8ue170006ERS3_, symObjAddr: 0x1F88, symBinAddr: 0x100003DD8, symSize: 0x34 }
  - { offset: 0x22A35, size: 0x8, addend: 0x0, symName: __ZNSt3__16vectorIiNS_9allocatorIiEEE16__destroy_vectorclB8ue170006Ev, symObjAddr: 0x1FBC, symBinAddr: 0x100003E0C, symSize: 0x90 }
  - { offset: 0x22A5B, size: 0x8, addend: 0x0, symName: __ZNSt3__16vectorIiNS_9allocatorIiEEE16__destroy_vectorC2B8ue170006ERS3_, symObjAddr: 0x204C, symBinAddr: 0x100003E9C, symSize: 0x20 }
  - { offset: 0x22A94, size: 0x8, addend: 0x0, symName: __ZNSt3__16vectorIiNS_9allocatorIiEEE7__clearB8ue170006Ev, symObjAddr: 0x206C, symBinAddr: 0x100003EBC, symSize: 0x28 }
  - { offset: 0x22ABA, size: 0x8, addend: 0x0, symName: __ZNKSt3__16vectorIiNS_9allocatorIiEEE17__annotate_deleteB8ue170006Ev, symObjAddr: 0x2094, symBinAddr: 0x100003EE4, symSize: 0xB8 }
  - { offset: 0x22AE0, size: 0x8, addend: 0x0, symName: __ZNSt3__116allocator_traitsINS_9allocatorIiEEE10deallocateB8ue170006ERS2_Pim, symObjAddr: 0x214C, symBinAddr: 0x100003F9C, symSize: 0x34 }
  - { offset: 0x22B22, size: 0x8, addend: 0x0, symName: __ZNSt3__16vectorIiNS_9allocatorIiEEE7__allocB8ue170006Ev, symObjAddr: 0x2180, symBinAddr: 0x100003FD0, symSize: 0x28 }
  - { offset: 0x22B48, size: 0x8, addend: 0x0, symName: __ZNKSt3__16vectorIiNS_9allocatorIiEEE8capacityB8ue170006Ev, symObjAddr: 0x21A8, symBinAddr: 0x100003FF8, symSize: 0x40 }
  - { offset: 0x22B6E, size: 0x8, addend: 0x0, symName: __ZNSt3__16vectorIiNS_9allocatorIiEEE22__base_destruct_at_endB8ue170006EPi, symObjAddr: 0x21E8, symBinAddr: 0x100004038, symSize: 0x8C }
  - { offset: 0x22BB2, size: 0x8, addend: 0x0, symName: __ZNSt3__116allocator_traitsINS_9allocatorIiEEE7destroyB8ue170006IivEEvRS2_PT_, symObjAddr: 0x2274, symBinAddr: 0x1000040C4, symSize: 0x2C }
  - { offset: 0x22BEF, size: 0x8, addend: 0x0, symName: __ZNSt3__19allocatorIiE7destroyB8ue170006EPi, symObjAddr: 0x22B4, symBinAddr: 0x100004104, symSize: 0x14 }
  - { offset: 0x22C23, size: 0x8, addend: 0x0, symName: __ZNKSt3__16vectorIiNS_9allocatorIiEEE31__annotate_contiguous_containerB8ue170006EPKvS5_S5_S5_, symObjAddr: 0x22C8, symBinAddr: 0x100004118, symSize: 0x20 }
  - { offset: 0x22C75, size: 0x8, addend: 0x0, symName: __ZNKSt3__16vectorIiNS_9allocatorIiEEE4dataB8ue170006Ev, symObjAddr: 0x22E8, symBinAddr: 0x100004138, symSize: 0x28 }
  - { offset: 0x22C9B, size: 0x8, addend: 0x0, symName: __ZNKSt3__16vectorIiNS_9allocatorIiEEE4sizeB8ue170006Ev, symObjAddr: 0x2310, symBinAddr: 0x100004160, symSize: 0x28 }
  - { offset: 0x22CC1, size: 0x8, addend: 0x0, symName: __ZNSt3__19allocatorIiE10deallocateB8ue170006EPim, symObjAddr: 0x2338, symBinAddr: 0x100004188, symSize: 0x40 }
  - { offset: 0x22D03, size: 0x8, addend: 0x0, symName: __ZNSt3__117__compressed_pairIPiNS_9allocatorIiEEE6secondB8ue170006Ev, symObjAddr: 0x24A0, symBinAddr: 0x1000042F0, symSize: 0x24 }
  - { offset: 0x22D29, size: 0x8, addend: 0x0, symName: __ZNSt3__122__compressed_pair_elemINS_9allocatorIiEELi1ELb1EE5__getB8ue170006Ev, symObjAddr: 0x24C4, symBinAddr: 0x100004314, symSize: 0x14 }
  - { offset: 0x22D4F, size: 0x8, addend: 0x0, symName: __ZNKSt3__16vectorIiNS_9allocatorIiEEE9__end_capB8ue170006Ev, symObjAddr: 0x24D8, symBinAddr: 0x100004328, symSize: 0x28 }
  - { offset: 0x22D75, size: 0x8, addend: 0x0, symName: __ZNKSt3__117__compressed_pairIPiNS_9allocatorIiEEE5firstB8ue170006Ev, symObjAddr: 0x2500, symBinAddr: 0x100004350, symSize: 0x24 }
  - { offset: 0x22D9B, size: 0x8, addend: 0x0, symName: __ZNKSt3__122__compressed_pair_elemIPiLi0ELb0EE5__getB8ue170006Ev, symObjAddr: 0x2524, symBinAddr: 0x100004374, symSize: 0x14 }
  - { offset: 0x22DC1, size: 0x8, addend: 0x0, symName: __ZNSt3__19basic_iosIcNS_11char_traitsIcEEEC2B8ue170006Ev, symObjAddr: 0x2538, symBinAddr: 0x100004388, symSize: 0x3C }
  - { offset: 0x22DEB, size: 0x8, addend: 0x0, symName: __ZNSt3__113basic_ostreamIcNS_11char_traitsIcEEEC2B8ue170006EPNS_15basic_streambufIcS2_EE, symObjAddr: 0x2574, symBinAddr: 0x1000043C4, symSize: 0x60 }
  - { offset: 0x22E30, size: 0x8, addend: 0x0, symName: __ZNSt3__19basic_iosIcNS_11char_traitsIcEEE8setstateB8ue170006Ej, symObjAddr: 0x25D4, symBinAddr: 0x100004424, symSize: 0x2C }
  - { offset: 0x22E65, size: 0x8, addend: 0x0, symName: __ZNSt3__18ios_baseC2B8ue170006Ev, symObjAddr: 0x2600, symBinAddr: 0x100004450, symSize: 0x24 }
  - { offset: 0x22E8F, size: 0x8, addend: 0x0, symName: __ZNSt3__19basic_iosIcNS_11char_traitsIcEEE4initB8ue170006EPNS_15basic_streambufIcS2_EE, symObjAddr: 0x2624, symBinAddr: 0x100004474, symSize: 0x44 }
  - { offset: 0x22EC6, size: 0x8, addend: 0x0, symName: __ZNSt3__111char_traitsIcE3eofB8ue170006Ev, symObjAddr: 0x2668, symBinAddr: 0x1000044B8, symSize: 0x8 }
  - { offset: 0x22EDA, size: 0x8, addend: 0x0, symName: __ZNSt3__18ios_base8setstateB8ue170006Ej, symObjAddr: 0x2670, symBinAddr: 0x1000044C0, symSize: 0x34 }
  - { offset: 0x22F11, size: 0x8, addend: 0x0, symName: __ZNKSt3__113basic_filebufIcNS_11char_traitsIcEEE7is_openEv, symObjAddr: 0x26A4, symBinAddr: 0x1000044F4, symSize: 0x24 }
  - { offset: 0x22F5C, size: 0x8, addend: 0x0, symName: __ZNKSt3__113basic_ostreamIcNS_11char_traitsIcEEE6sentrycvbB8ue170006Ev, symObjAddr: 0x28B4, symBinAddr: 0x100004704, symSize: 0x1C }
  - { offset: 0x22F82, size: 0x8, addend: 0x0, symName: __ZNSt3__119ostreambuf_iteratorIcNS_11char_traitsIcEEEC1B8ue170006ERNS_13basic_ostreamIcS2_EE, symObjAddr: 0x2B10, symBinAddr: 0x100004960, symSize: 0x34 }
  - { offset: 0x22FBA, size: 0x8, addend: 0x0, symName: __ZNKSt3__18ios_base5flagsB8ue170006Ev, symObjAddr: 0x2B44, symBinAddr: 0x100004994, symSize: 0x18 }
  - { offset: 0x22FE2, size: 0x8, addend: 0x0, symName: __ZNKSt3__19basic_iosIcNS_11char_traitsIcEEE4fillB8ue170006Ev, symObjAddr: 0x2B5C, symBinAddr: 0x1000049AC, symSize: 0x64 }
  - { offset: 0x2300A, size: 0x8, addend: 0x0, symName: __ZNKSt3__119ostreambuf_iteratorIcNS_11char_traitsIcEEE6failedB8ue170006Ev, symObjAddr: 0x2BC0, symBinAddr: 0x100004A10, symSize: 0x24 }
  - { offset: 0x23030, size: 0x8, addend: 0x0, symName: __ZNKSt3__18ios_base5widthB8ue170006Ev, symObjAddr: 0x2BE4, symBinAddr: 0x100004A34, symSize: 0x18 }
  - { offset: 0x23058, size: 0x8, addend: 0x0, symName: __ZNSt3__115basic_streambufIcNS_11char_traitsIcEEE5sputnB8ue170006EPKcl, symObjAddr: 0x2BFC, symBinAddr: 0x100004A4C, symSize: 0x3C }
  - { offset: 0x2309A, size: 0x8, addend: 0x0, symName: __ZNSt3__112basic_stringIcNS_11char_traitsIcEENS_9allocatorIcEEEC1B8ue170006Emc, symObjAddr: 0x2C38, symBinAddr: 0x100004A88, symSize: 0x3C }
  - { offset: 0x230E2, size: 0x8, addend: 0x0, symName: __ZNSt3__112basic_stringIcNS_11char_traitsIcEENS_9allocatorIcEEE4dataB8ue170006Ev, symObjAddr: 0x2C74, symBinAddr: 0x100004AC4, symSize: 0x28 }
  - { offset: 0x23108, size: 0x8, addend: 0x0, symName: __ZNSt3__18ios_base5widthB8ue170006El, symObjAddr: 0x2C9C, symBinAddr: 0x100004AEC, symSize: 0x2C }
  - { offset: 0x2314E, size: 0x8, addend: 0x0, symName: __ZNSt3__112basic_stringIcNS_11char_traitsIcEENS_9allocatorIcEEEC2B8ue170006Emc, symObjAddr: 0x2CC8, symBinAddr: 0x100004B18, symSize: 0x4C }
  - { offset: 0x23196, size: 0x8, addend: 0x0, symName: __ZNSt3__112basic_stringIcNS_11char_traitsIcEENS_9allocatorIcEEE13__get_pointerB8ue170006Ev, symObjAddr: 0x2D28, symBinAddr: 0x100004B78, symSize: 0x54 }
  - { offset: 0x231BC, size: 0x8, addend: 0x0, symName: __ZNKSt3__112basic_stringIcNS_11char_traitsIcEENS_9allocatorIcEEE9__is_longB8ue170006Ev, symObjAddr: 0x2D7C, symBinAddr: 0x100004BCC, symSize: 0x38 }
  - { offset: 0x231E2, size: 0x8, addend: 0x0, symName: __ZNSt3__112basic_stringIcNS_11char_traitsIcEENS_9allocatorIcEEE18__get_long_pointerB8ue170006Ev, symObjAddr: 0x2DB4, symBinAddr: 0x100004C04, symSize: 0x28 }
  - { offset: 0x23208, size: 0x8, addend: 0x0, symName: __ZNSt3__112basic_stringIcNS_11char_traitsIcEENS_9allocatorIcEEE19__get_short_pointerB8ue170006Ev, symObjAddr: 0x2DDC, symBinAddr: 0x100004C2C, symSize: 0x28 }
  - { offset: 0x2322E, size: 0x8, addend: 0x0, symName: __ZNKSt3__117__compressed_pairINS_12basic_stringIcNS_11char_traitsIcEENS_9allocatorIcEEE5__repES5_E5firstB8ue170006Ev, symObjAddr: 0x2E04, symBinAddr: 0x100004C54, symSize: 0x24 }
  - { offset: 0x23254, size: 0x8, addend: 0x0, symName: __ZNKSt3__122__compressed_pair_elemINS_12basic_stringIcNS_11char_traitsIcEENS_9allocatorIcEEE5__repELi0ELb0EE5__getB8ue170006Ev, symObjAddr: 0x2E28, symBinAddr: 0x100004C78, symSize: 0x14 }
  - { offset: 0x2327A, size: 0x8, addend: 0x0, symName: __ZNSt3__114pointer_traitsIPcE10pointer_toB8ue170006ERc, symObjAddr: 0x2E3C, symBinAddr: 0x100004C8C, symSize: 0x14 }
  - { offset: 0x2329D, size: 0x8, addend: 0x0, symName: __ZNSt3__119ostreambuf_iteratorIcNS_11char_traitsIcEEEC2B8ue170006ERNS_13basic_ostreamIcS2_EE, symObjAddr: 0x2E50, symBinAddr: 0x100004CA0, symSize: 0x54 }
  - { offset: 0x232D5, size: 0x8, addend: 0x0, symName: __ZNKSt3__19basic_iosIcNS_11char_traitsIcEEE5rdbufB8ue170006Ev, symObjAddr: 0x2EA4, symBinAddr: 0x100004CF4, symSize: 0x24 }
  - { offset: 0x232FD, size: 0x8, addend: 0x0, symName: __ZNKSt3__18ios_base5rdbufB8ue170006Ev, symObjAddr: 0x2EC8, symBinAddr: 0x100004D18, symSize: 0x18 }
  - { offset: 0x23323, size: 0x8, addend: 0x0, symName: __ZNSt3__111char_traitsIcE11eq_int_typeB8ue170006Eii, symObjAddr: 0x2EE0, symBinAddr: 0x100004D30, symSize: 0x28 }
  - { offset: 0x23356, size: 0x8, addend: 0x0, symName: __ZNKSt3__19basic_iosIcNS_11char_traitsIcEEE5widenB8ue170006Ec, symObjAddr: 0x2F08, symBinAddr: 0x100004D58, symSize: 0x84 }
  - { offset: 0x233D1, size: 0x8, addend: 0x0, symName: __ZNKSt3__15ctypeIcE5widenB8ue170006Ec, symObjAddr: 0x2FB8, symBinAddr: 0x100004E08, symSize: 0x38 }
  - { offset: 0x23406, size: 0x8, addend: 0x0, symName: __ZNSt3__16vectorIiNS_9allocatorIiEEEC2B8ue170006ESt16initializer_listIiE, symObjAddr: 0x2FF0, symBinAddr: 0x100004E40, symSize: 0x120 }
  - { offset: 0x2345C, size: 0x8, addend: 0x0, symName: __ZNSt3__117__compressed_pairIPiNS_9allocatorIiEEEC1B8ue170006IDnNS_18__default_init_tagEEEOT_OT0_, symObjAddr: 0x3110, symBinAddr: 0x100004F60, symSize: 0x3C }
  - { offset: 0x234B4, size: 0x8, addend: 0x0, symName: __ZNKSt16initializer_listIiE4sizeB8ue170006Ev, symObjAddr: 0x318C, symBinAddr: 0x100004FDC, symSize: 0x18 }
  - { offset: 0x234DA, size: 0x8, addend: 0x0, symName: __ZNSt3__16vectorIiNS_9allocatorIiEEE11__vallocateB8ue170006Em, symObjAddr: 0x31A4, symBinAddr: 0x100004FF4, symSize: 0xAC }
  - { offset: 0x2351E, size: 0x8, addend: 0x0, symName: __ZNSt3__16vectorIiNS_9allocatorIiEEE18__construct_at_endIPKiS6_EEvT_T0_m, symObjAddr: 0x3250, symBinAddr: 0x1000050A0, symSize: 0x8C }
  - { offset: 0x23594, size: 0x8, addend: 0x0, symName: __ZNKSt16initializer_listIiE5beginB8ue170006Ev, symObjAddr: 0x32DC, symBinAddr: 0x10000512C, symSize: 0x18 }
  - { offset: 0x235BA, size: 0x8, addend: 0x0, symName: __ZNKSt16initializer_listIiE3endB8ue170006Ev, symObjAddr: 0x32F4, symBinAddr: 0x100005144, symSize: 0x20 }
  - { offset: 0x235E0, size: 0x8, addend: 0x0, symName: __ZNSt3__128__exception_guard_exceptionsINS_6vectorIiNS_9allocatorIiEEE16__destroy_vectorEE10__completeB8ue170006Ev, symObjAddr: 0x3314, symBinAddr: 0x100005164, symSize: 0x1C }
  - { offset: 0x23606, size: 0x8, addend: 0x0, symName: __ZNSt3__128__exception_guard_exceptionsINS_6vectorIiNS_9allocatorIiEEE16__destroy_vectorEED1B8ue170006Ev, symObjAddr: 0x3330, symBinAddr: 0x100005180, symSize: 0x2C }
  - { offset: 0x23630, size: 0x8, addend: 0x0, symName: __ZNSt3__117__compressed_pairIPiNS_9allocatorIiEEEC2B8ue170006IDnNS_18__default_init_tagEEEOT_OT0_, symObjAddr: 0x335C, symBinAddr: 0x1000051AC, symSize: 0x40 }
  - { offset: 0x23688, size: 0x8, addend: 0x0, symName: __ZNSt3__122__compressed_pair_elemIPiLi0ELb0EEC2B8ue170006IDnvEEOT_, symObjAddr: 0x339C, symBinAddr: 0x1000051EC, symSize: 0x1C }
  - { offset: 0x236CA, size: 0x8, addend: 0x0, symName: __ZNSt3__122__compressed_pair_elemINS_9allocatorIiEELi1ELb1EEC2B8ue170006ENS_18__default_init_tagE, symObjAddr: 0x33B8, symBinAddr: 0x100005208, symSize: 0x2C }
  - { offset: 0x236FF, size: 0x8, addend: 0x0, symName: __ZNSt3__19allocatorIiEC2B8ue170006Ev, symObjAddr: 0x33E4, symBinAddr: 0x100005234, symSize: 0x2C }
  - { offset: 0x23729, size: 0x8, addend: 0x0, symName: __ZNSt3__116__non_trivial_ifILb1ENS_9allocatorIiEEEC2B8ue170006Ev, symObjAddr: 0x3410, symBinAddr: 0x100005260, symSize: 0x14 }
  - { offset: 0x23753, size: 0x8, addend: 0x0, symName: __ZNSt3__128__exception_guard_exceptionsINS_6vectorIiNS_9allocatorIiEEE16__destroy_vectorEEC1B8ue170006ES5_, symObjAddr: 0x3424, symBinAddr: 0x100005274, symSize: 0x34 }
  - { offset: 0x2378B, size: 0x8, addend: 0x0, symName: __ZNSt3__128__exception_guard_exceptionsINS_6vectorIiNS_9allocatorIiEEE16__destroy_vectorEEC2B8ue170006ES5_, symObjAddr: 0x3458, symBinAddr: 0x1000052A8, symSize: 0x24 }
  - { offset: 0x237C3, size: 0x8, addend: 0x0, symName: __ZNKSt3__16vectorIiNS_9allocatorIiEEE8max_sizeEv, symObjAddr: 0x347C, symBinAddr: 0x1000052CC, symSize: 0x60 }
  - { offset: 0x237EB, size: 0x8, addend: 0x0, symName: __ZNKSt3__16vectorIiNS_9allocatorIiEEE20__throw_length_errorB8ue170006Ev, symObjAddr: 0x34DC, symBinAddr: 0x10000532C, symSize: 0x1C }
  - { offset: 0x23811, size: 0x8, addend: 0x0, symName: __ZNSt3__16vectorIiNS_9allocatorIiEEE9__end_capB8ue170006Ev, symObjAddr: 0x3538, symBinAddr: 0x100005388, symSize: 0x28 }
  - { offset: 0x23837, size: 0x8, addend: 0x0, symName: __ZNKSt3__16vectorIiNS_9allocatorIiEEE14__annotate_newB8ue170006Em, symObjAddr: 0x3560, symBinAddr: 0x1000053B0, symSize: 0xAC }
  - { offset: 0x23877, size: 0x8, addend: 0x0, symName: __ZNSt3__116allocator_traitsINS_9allocatorIiEEE8max_sizeB8ue170006IS2_vEEmRKS2_, symObjAddr: 0x3638, symBinAddr: 0x100005488, symSize: 0x24 }
  - { offset: 0x238A5, size: 0x8, addend: 0x0, symName: __ZNKSt3__16vectorIiNS_9allocatorIiEEE7__allocB8ue170006Ev, symObjAddr: 0x365C, symBinAddr: 0x1000054AC, symSize: 0x28 }
  - { offset: 0x238CB, size: 0x8, addend: 0x0, symName: __ZNSt3__114numeric_limitsIlE3maxB8ue170006Ev, symObjAddr: 0x3684, symBinAddr: 0x1000054D4, symSize: 0x14 }
  - { offset: 0x238F0, size: 0x8, addend: 0x0, symName: __ZNKSt3__16__lessIvvEclB8ue170006ImmEEbRKT_RKT0_, symObjAddr: 0x36EC, symBinAddr: 0x10000553C, symSize: 0x34 }
  - { offset: 0x23944, size: 0x8, addend: 0x0, symName: __ZNKSt3__19allocatorIiE8max_sizeB8ue170006Ev, symObjAddr: 0x3720, symBinAddr: 0x100005570, symSize: 0x14 }
  - { offset: 0x2396A, size: 0x8, addend: 0x0, symName: __ZNKSt3__117__compressed_pairIPiNS_9allocatorIiEEE6secondB8ue170006Ev, symObjAddr: 0x3734, symBinAddr: 0x100005584, symSize: 0x24 }
  - { offset: 0x23990, size: 0x8, addend: 0x0, symName: __ZNKSt3__122__compressed_pair_elemINS_9allocatorIiEELi1ELb1EE5__getB8ue170006Ev, symObjAddr: 0x3758, symBinAddr: 0x1000055A8, symSize: 0x14 }
  - { offset: 0x239B6, size: 0x8, addend: 0x0, symName: __ZNSt3__123__libcpp_numeric_limitsIlLb1EE3maxB8ue170006Ev, symObjAddr: 0x376C, symBinAddr: 0x1000055BC, symSize: 0x8 }
  - { offset: 0x239CA, size: 0x8, addend: 0x0, symName: __ZNSt12length_errorC1B8ue170006EPKc, symObjAddr: 0x37D8, symBinAddr: 0x100005628, symSize: 0x34 }
  - { offset: 0x23A02, size: 0x8, addend: 0x0, symName: __ZNSt12length_errorC2B8ue170006EPKc, symObjAddr: 0x380C, symBinAddr: 0x10000565C, symSize: 0x44 }
  - { offset: 0x23A3A, size: 0x8, addend: 0x0, symName: __ZNSt3__19allocatorIiE8allocateB8ue170006Em, symObjAddr: 0x3850, symBinAddr: 0x1000056A0, symSize: 0x58 }
  - { offset: 0x23A6E, size: 0x8, addend: 0x0, symName: __ZNSt3__117__compressed_pairIPiNS_9allocatorIiEEE5firstB8ue170006Ev, symObjAddr: 0x398C, symBinAddr: 0x1000057DC, symSize: 0x24 }
  - { offset: 0x23A94, size: 0x8, addend: 0x0, symName: __ZNSt3__122__compressed_pair_elemIPiLi0ELb0EE5__getB8ue170006Ev, symObjAddr: 0x39B0, symBinAddr: 0x100005800, symSize: 0x14 }
  - { offset: 0x23AD6, size: 0x8, addend: 0x0, symName: __ZNSt3__16vectorIiNS_9allocatorIiEEE21_ConstructTransactionC1B8ue170006ERS3_m, symObjAddr: 0x39C4, symBinAddr: 0x100005814, symSize: 0x3C }
  - { offset: 0x23B1E, size: 0x8, addend: 0x0, symName: __ZNSt3__16vectorIiNS_9allocatorIiEEE21_ConstructTransactionD1B8ue170006Ev, symObjAddr: 0x3A80, symBinAddr: 0x1000058D0, symSize: 0x2C }
  - { offset: 0x23B48, size: 0x8, addend: 0x0, symName: __ZNSt3__16vectorIiNS_9allocatorIiEEE21_ConstructTransactionC2B8ue170006ERS3_m, symObjAddr: 0x3AAC, symBinAddr: 0x1000058FC, symSize: 0x44 }
  - { offset: 0x23BB3, size: 0x8, addend: 0x0, symName: __ZNSt3__14pairIPKiS2_EC1B8ue170006IS2_S2_LPv0EEEOT_OT0_, symObjAddr: 0x3C44, symBinAddr: 0x100005A94, symSize: 0x3C }
  - { offset: 0x23C11, size: 0x8, addend: 0x0, symName: __ZNSt3__14pairIPKiS2_EC2B8ue170006IS2_S2_LPv0EEEOT_OT0_, symObjAddr: 0x3C80, symBinAddr: 0x100005AD0, symSize: 0x34 }
  - { offset: 0x23C6F, size: 0x8, addend: 0x0, symName: __ZNSt3__118__unwrap_iter_implIPKiLb1EE8__unwrapB8ue170006ES2_, symObjAddr: 0x3CB4, symBinAddr: 0x100005B04, symSize: 0x24 }
  - { offset: 0x23CBA, size: 0x8, addend: 0x0, symName: __ZNKSt3__114__copy_trivialclB8ue170006IKiiLi0EEENS_4pairIPT_PT0_EES5_S5_S7_, symObjAddr: 0x3E68, symBinAddr: 0x100005CB8, symSize: 0x48 }
  - { offset: 0x23D2E, size: 0x8, addend: 0x0, symName: __ZNSt3__14pairIPKiPiEC1B8ue170006IRS2_S3_LPv0EEEOT_OT0_, symObjAddr: 0x4030, symBinAddr: 0x100005E80, symSize: 0x3C }
  - { offset: 0x23D8C, size: 0x8, addend: 0x0, symName: __ZNSt3__14pairIPKiPiEC2B8ue170006IRS2_S3_LPv0EEEOT_OT0_, symObjAddr: 0x406C, symBinAddr: 0x100005EBC, symSize: 0x34 }
  - { offset: 0x23DEA, size: 0x8, addend: 0x0, symName: __ZNSt3__14pairIPKiPiEC1B8ue170006IS2_S3_LPv0EEEOT_OT0_, symObjAddr: 0x40A0, symBinAddr: 0x100005EF0, symSize: 0x3C }
  - { offset: 0x23E48, size: 0x8, addend: 0x0, symName: __ZNSt3__14pairIPKiPiEC2B8ue170006IS2_S3_LPv0EEEOT_OT0_, symObjAddr: 0x40DC, symBinAddr: 0x100005F2C, symSize: 0x34 }
  - { offset: 0x23EA6, size: 0x8, addend: 0x0, symName: __ZNSt3__118__unwrap_iter_implIPKiLb1EE8__rewrapB8ue170006ES2_S2_, symObjAddr: 0x414C, symBinAddr: 0x100005F9C, symSize: 0x50 }
  - { offset: 0x23ED7, size: 0x8, addend: 0x0, symName: __ZNSt3__118__unwrap_iter_implIPiLb1EE8__unwrapB8ue170006ES1_, symObjAddr: 0x419C, symBinAddr: 0x100005FEC, symSize: 0x24 }
  - { offset: 0x23EFA, size: 0x8, addend: 0x0, symName: __ZNSt3__118__unwrap_iter_implIPiLb1EE8__rewrapB8ue170006ES1_S1_, symObjAddr: 0x41C0, symBinAddr: 0x100006010, symSize: 0x50 }
  - { offset: 0x23F2B, size: 0x8, addend: 0x0, symName: __ZNSt3__16vectorIiNS_9allocatorIiEEE21_ConstructTransactionD2B8ue170006Ev, symObjAddr: 0x4210, symBinAddr: 0x100006060, symSize: 0x20 }
  - { offset: 0x23F55, size: 0x8, addend: 0x0, symName: __ZNSt3__128__exception_guard_exceptionsINS_6vectorIiNS_9allocatorIiEEE16__destroy_vectorEED2B8ue170006Ev, symObjAddr: 0x4230, symBinAddr: 0x100006080, symSize: 0x48 }
  - { offset: 0x23F7F, size: 0x8, addend: 0x0, symName: __ZNSt3__16vectorI16DistributionTypeNS_9allocatorIS1_EEEC2B8ue170006ESt16initializer_listIS1_E, symObjAddr: 0x4278, symBinAddr: 0x1000060C8, symSize: 0x120 }
  - { offset: 0x23FCF, size: 0x8, addend: 0x0, symName: __ZNSt3__117__compressed_pairIP16DistributionTypeNS_9allocatorIS1_EEEC1B8ue170006IDnNS_18__default_init_tagEEEOT_OT0_, symObjAddr: 0x4398, symBinAddr: 0x1000061E8, symSize: 0x3C }
  - { offset: 0x24027, size: 0x8, addend: 0x0, symName: __ZNSt3__16vectorI16DistributionTypeNS_9allocatorIS1_EEE16__destroy_vectorC1B8ue170006ERS4_, symObjAddr: 0x4414, symBinAddr: 0x100006264, symSize: 0x34 }
  - { offset: 0x24060, size: 0x8, addend: 0x0, symName: __ZNKSt16initializer_listI16DistributionTypeE4sizeB8ue170006Ev, symObjAddr: 0x4448, symBinAddr: 0x100006298, symSize: 0x18 }
  - { offset: 0x24086, size: 0x8, addend: 0x0, symName: __ZNSt3__16vectorI16DistributionTypeNS_9allocatorIS1_EEE11__vallocateB8ue170006Em, symObjAddr: 0x4460, symBinAddr: 0x1000062B0, symSize: 0xAC }
  - { offset: 0x240CA, size: 0x8, addend: 0x0, symName: __ZNSt3__16vectorI16DistributionTypeNS_9allocatorIS1_EEE18__construct_at_endIPKS1_S7_EEvT_T0_m, symObjAddr: 0x450C, symBinAddr: 0x10000635C, symSize: 0x8C }
  - { offset: 0x24140, size: 0x8, addend: 0x0, symName: __ZNKSt16initializer_listI16DistributionTypeE5beginB8ue170006Ev, symObjAddr: 0x4598, symBinAddr: 0x1000063E8, symSize: 0x18 }
  - { offset: 0x24166, size: 0x8, addend: 0x0, symName: __ZNKSt16initializer_listI16DistributionTypeE3endB8ue170006Ev, symObjAddr: 0x45B0, symBinAddr: 0x100006400, symSize: 0x20 }
  - { offset: 0x2418C, size: 0x8, addend: 0x0, symName: __ZNSt3__128__exception_guard_exceptionsINS_6vectorI16DistributionTypeNS_9allocatorIS2_EEE16__destroy_vectorEE10__completeB8ue170006Ev, symObjAddr: 0x45D0, symBinAddr: 0x100006420, symSize: 0x1C }
  - { offset: 0x241B2, size: 0x8, addend: 0x0, symName: __ZNSt3__128__exception_guard_exceptionsINS_6vectorI16DistributionTypeNS_9allocatorIS2_EEE16__destroy_vectorEED1B8ue170006Ev, symObjAddr: 0x45EC, symBinAddr: 0x10000643C, symSize: 0x2C }
  - { offset: 0x241DC, size: 0x8, addend: 0x0, symName: __ZNSt3__117__compressed_pairIP16DistributionTypeNS_9allocatorIS1_EEEC2B8ue170006IDnNS_18__default_init_tagEEEOT_OT0_, symObjAddr: 0x4618, symBinAddr: 0x100006468, symSize: 0x40 }
  - { offset: 0x24234, size: 0x8, addend: 0x0, symName: __ZNSt3__122__compressed_pair_elemIP16DistributionTypeLi0ELb0EEC2B8ue170006IDnvEEOT_, symObjAddr: 0x4658, symBinAddr: 0x1000064A8, symSize: 0x1C }
  - { offset: 0x24276, size: 0x8, addend: 0x0, symName: __ZNSt3__122__compressed_pair_elemINS_9allocatorI16DistributionTypeEELi1ELb1EEC2B8ue170006ENS_18__default_init_tagE, symObjAddr: 0x4674, symBinAddr: 0x1000064C4, symSize: 0x2C }
  - { offset: 0x242AB, size: 0x8, addend: 0x0, symName: __ZNSt3__19allocatorI16DistributionTypeEC2B8ue170006Ev, symObjAddr: 0x46A0, symBinAddr: 0x1000064F0, symSize: 0x2C }
  - { offset: 0x242D5, size: 0x8, addend: 0x0, symName: __ZNSt3__116__non_trivial_ifILb1ENS_9allocatorI16DistributionTypeEEEC2B8ue170006Ev, symObjAddr: 0x46CC, symBinAddr: 0x10000651C, symSize: 0x14 }
  - { offset: 0x242FF, size: 0x8, addend: 0x0, symName: __ZNSt3__128__exception_guard_exceptionsINS_6vectorI16DistributionTypeNS_9allocatorIS2_EEE16__destroy_vectorEEC1B8ue170006ES6_, symObjAddr: 0x46E0, symBinAddr: 0x100006530, symSize: 0x34 }
  - { offset: 0x24337, size: 0x8, addend: 0x0, symName: __ZNSt3__128__exception_guard_exceptionsINS_6vectorI16DistributionTypeNS_9allocatorIS2_EEE16__destroy_vectorEEC2B8ue170006ES6_, symObjAddr: 0x4714, symBinAddr: 0x100006564, symSize: 0x24 }
  - { offset: 0x2436F, size: 0x8, addend: 0x0, symName: __ZNSt3__16vectorI16DistributionTypeNS_9allocatorIS1_EEE16__destroy_vectorC2B8ue170006ERS4_, symObjAddr: 0x4738, symBinAddr: 0x100006588, symSize: 0x20 }
  - { offset: 0x243A8, size: 0x8, addend: 0x0, symName: __ZNKSt3__16vectorI16DistributionTypeNS_9allocatorIS1_EEE8max_sizeEv, symObjAddr: 0x4758, symBinAddr: 0x1000065A8, symSize: 0x60 }
  - { offset: 0x243D0, size: 0x8, addend: 0x0, symName: __ZNKSt3__16vectorI16DistributionTypeNS_9allocatorIS1_EEE20__throw_length_errorB8ue170006Ev, symObjAddr: 0x47B8, symBinAddr: 0x100006608, symSize: 0x1C }
  - { offset: 0x243F6, size: 0x8, addend: 0x0, symName: __ZNSt3__16vectorI16DistributionTypeNS_9allocatorIS1_EEE7__allocB8ue170006Ev, symObjAddr: 0x4814, symBinAddr: 0x100006664, symSize: 0x28 }
  - { offset: 0x2441C, size: 0x8, addend: 0x0, symName: __ZNSt3__16vectorI16DistributionTypeNS_9allocatorIS1_EEE9__end_capB8ue170006Ev, symObjAddr: 0x483C, symBinAddr: 0x10000668C, symSize: 0x28 }
  - { offset: 0x24442, size: 0x8, addend: 0x0, symName: __ZNKSt3__16vectorI16DistributionTypeNS_9allocatorIS1_EEE14__annotate_newB8ue170006Em, symObjAddr: 0x4864, symBinAddr: 0x1000066B4, symSize: 0xAC }
  - { offset: 0x24482, size: 0x8, addend: 0x0, symName: __ZNSt3__116allocator_traitsINS_9allocatorI16DistributionTypeEEE8max_sizeB8ue170006IS3_vEEmRKS3_, symObjAddr: 0x4910, symBinAddr: 0x100006760, symSize: 0x24 }
  - { offset: 0x244B0, size: 0x8, addend: 0x0, symName: __ZNKSt3__16vectorI16DistributionTypeNS_9allocatorIS1_EEE7__allocB8ue170006Ev, symObjAddr: 0x4934, symBinAddr: 0x100006784, symSize: 0x28 }
  - { offset: 0x244D6, size: 0x8, addend: 0x0, symName: __ZNKSt3__19allocatorI16DistributionTypeE8max_sizeB8ue170006Ev, symObjAddr: 0x495C, symBinAddr: 0x1000067AC, symSize: 0x14 }
  - { offset: 0x244FC, size: 0x8, addend: 0x0, symName: __ZNKSt3__117__compressed_pairIP16DistributionTypeNS_9allocatorIS1_EEE6secondB8ue170006Ev, symObjAddr: 0x4970, symBinAddr: 0x1000067C0, symSize: 0x24 }
  - { offset: 0x24522, size: 0x8, addend: 0x0, symName: __ZNKSt3__122__compressed_pair_elemINS_9allocatorI16DistributionTypeEELi1ELb1EE5__getB8ue170006Ev, symObjAddr: 0x4994, symBinAddr: 0x1000067E4, symSize: 0x14 }
  - { offset: 0x24548, size: 0x8, addend: 0x0, symName: __ZNSt3__19allocatorI16DistributionTypeE8allocateB8ue170006Em, symObjAddr: 0x49A8, symBinAddr: 0x1000067F8, symSize: 0x58 }
  - { offset: 0x2457C, size: 0x8, addend: 0x0, symName: __ZNSt3__117__compressed_pairIP16DistributionTypeNS_9allocatorIS1_EEE6secondB8ue170006Ev, symObjAddr: 0x4A00, symBinAddr: 0x100006850, symSize: 0x24 }
  - { offset: 0x245A2, size: 0x8, addend: 0x0, symName: __ZNSt3__122__compressed_pair_elemINS_9allocatorI16DistributionTypeEELi1ELb1EE5__getB8ue170006Ev, symObjAddr: 0x4A24, symBinAddr: 0x100006874, symSize: 0x14 }
  - { offset: 0x245C8, size: 0x8, addend: 0x0, symName: __ZNSt3__117__compressed_pairIP16DistributionTypeNS_9allocatorIS1_EEE5firstB8ue170006Ev, symObjAddr: 0x4A38, symBinAddr: 0x100006888, symSize: 0x24 }
  - { offset: 0x245EE, size: 0x8, addend: 0x0, symName: __ZNSt3__122__compressed_pair_elemIP16DistributionTypeLi0ELb0EE5__getB8ue170006Ev, symObjAddr: 0x4A5C, symBinAddr: 0x1000068AC, symSize: 0x14 }
  - { offset: 0x24614, size: 0x8, addend: 0x0, symName: __ZNKSt3__16vectorI16DistributionTypeNS_9allocatorIS1_EEE31__annotate_contiguous_containerB8ue170006EPKvS6_S6_S6_, symObjAddr: 0x4A70, symBinAddr: 0x1000068C0, symSize: 0x20 }
  - { offset: 0x24666, size: 0x8, addend: 0x0, symName: __ZNKSt3__16vectorI16DistributionTypeNS_9allocatorIS1_EEE4dataB8ue170006Ev, symObjAddr: 0x4A90, symBinAddr: 0x1000068E0, symSize: 0x28 }
  - { offset: 0x2468C, size: 0x8, addend: 0x0, symName: __ZNKSt3__16vectorI16DistributionTypeNS_9allocatorIS1_EEE8capacityB8ue170006Ev, symObjAddr: 0x4AB8, symBinAddr: 0x100006908, symSize: 0x40 }
  - { offset: 0x246B2, size: 0x8, addend: 0x0, symName: __ZNKSt3__16vectorI16DistributionTypeNS_9allocatorIS1_EEE9__end_capB8ue170006Ev, symObjAddr: 0x4B0C, symBinAddr: 0x10000695C, symSize: 0x28 }
  - { offset: 0x246D8, size: 0x8, addend: 0x0, symName: __ZNKSt3__117__compressed_pairIP16DistributionTypeNS_9allocatorIS1_EEE5firstB8ue170006Ev, symObjAddr: 0x4B34, symBinAddr: 0x100006984, symSize: 0x24 }
  - { offset: 0x246FE, size: 0x8, addend: 0x0, symName: __ZNKSt3__122__compressed_pair_elemIP16DistributionTypeLi0ELb0EE5__getB8ue170006Ev, symObjAddr: 0x4B58, symBinAddr: 0x1000069A8, symSize: 0x14 }
  - { offset: 0x24740, size: 0x8, addend: 0x0, symName: __ZNSt3__16vectorI16DistributionTypeNS_9allocatorIS1_EEE21_ConstructTransactionC1B8ue170006ERS4_m, symObjAddr: 0x4B6C, symBinAddr: 0x1000069BC, symSize: 0x3C }
  - { offset: 0x24788, size: 0x8, addend: 0x0, symName: __ZNSt3__16vectorI16DistributionTypeNS_9allocatorIS1_EEE21_ConstructTransactionD1B8ue170006Ev, symObjAddr: 0x4C28, symBinAddr: 0x100006A78, symSize: 0x2C }
  - { offset: 0x247B2, size: 0x8, addend: 0x0, symName: __ZNSt3__16vectorI16DistributionTypeNS_9allocatorIS1_EEE21_ConstructTransactionC2B8ue170006ERS4_m, symObjAddr: 0x4C54, symBinAddr: 0x100006AA4, symSize: 0x44 }
  - { offset: 0x2481D, size: 0x8, addend: 0x0, symName: __ZNSt3__14pairIPK16DistributionTypeS3_EC1B8ue170006IS3_S3_LPv0EEEOT_OT0_, symObjAddr: 0x4DEC, symBinAddr: 0x100006C3C, symSize: 0x3C }
  - { offset: 0x2487B, size: 0x8, addend: 0x0, symName: __ZNSt3__14pairIPK16DistributionTypeS3_EC2B8ue170006IS3_S3_LPv0EEEOT_OT0_, symObjAddr: 0x4E28, symBinAddr: 0x100006C78, symSize: 0x34 }
  - { offset: 0x248D9, size: 0x8, addend: 0x0, symName: __ZNSt3__118__unwrap_iter_implIPK16DistributionTypeLb1EE8__unwrapB8ue170006ES3_, symObjAddr: 0x4E5C, symBinAddr: 0x100006CAC, symSize: 0x24 }
  - { offset: 0x24919, size: 0x8, addend: 0x0, symName: __ZNKSt3__114__copy_trivialclB8ue170006IK16DistributionTypeS2_Li0EEENS_4pairIPT_PT0_EES6_S6_S8_, symObjAddr: 0x5010, symBinAddr: 0x100006E60, symSize: 0x48 }
  - { offset: 0x2498D, size: 0x8, addend: 0x0, symName: __ZNSt3__14pairIPK16DistributionTypePS1_EC1B8ue170006IRS3_S4_LPv0EEEOT_OT0_, symObjAddr: 0x51D8, symBinAddr: 0x100007028, symSize: 0x3C }
  - { offset: 0x249EB, size: 0x8, addend: 0x0, symName: __ZNSt3__14pairIPK16DistributionTypePS1_EC2B8ue170006IRS3_S4_LPv0EEEOT_OT0_, symObjAddr: 0x5214, symBinAddr: 0x100007064, symSize: 0x34 }
  - { offset: 0x24A49, size: 0x8, addend: 0x0, symName: __ZNSt3__14pairIPK16DistributionTypePS1_EC1B8ue170006IS3_S4_LPv0EEEOT_OT0_, symObjAddr: 0x5248, symBinAddr: 0x100007098, symSize: 0x3C }
  - { offset: 0x24AA7, size: 0x8, addend: 0x0, symName: __ZNSt3__14pairIPK16DistributionTypePS1_EC2B8ue170006IS3_S4_LPv0EEEOT_OT0_, symObjAddr: 0x5284, symBinAddr: 0x1000070D4, symSize: 0x34 }
  - { offset: 0x24B05, size: 0x8, addend: 0x0, symName: __ZNSt3__118__unwrap_iter_implIPK16DistributionTypeLb1EE8__rewrapB8ue170006ES3_S3_, symObjAddr: 0x52F4, symBinAddr: 0x100007144, symSize: 0x50 }
  - { offset: 0x24B36, size: 0x8, addend: 0x0, symName: __ZNSt3__118__unwrap_iter_implIP16DistributionTypeLb1EE8__unwrapB8ue170006ES2_, symObjAddr: 0x5344, symBinAddr: 0x100007194, symSize: 0x24 }
  - { offset: 0x24B59, size: 0x8, addend: 0x0, symName: __ZNSt3__118__unwrap_iter_implIP16DistributionTypeLb1EE8__rewrapB8ue170006ES2_S2_, symObjAddr: 0x5368, symBinAddr: 0x1000071B8, symSize: 0x50 }
  - { offset: 0x24B8A, size: 0x8, addend: 0x0, symName: __ZNSt3__16vectorI16DistributionTypeNS_9allocatorIS1_EEE21_ConstructTransactionD2B8ue170006Ev, symObjAddr: 0x53B8, symBinAddr: 0x100007208, symSize: 0x20 }
  - { offset: 0x24BB4, size: 0x8, addend: 0x0, symName: __ZNSt3__128__exception_guard_exceptionsINS_6vectorI16DistributionTypeNS_9allocatorIS2_EEE16__destroy_vectorEED2B8ue170006Ev, symObjAddr: 0x53D8, symBinAddr: 0x100007228, symSize: 0x50 }
  - { offset: 0x24BDE, size: 0x8, addend: 0x0, symName: __ZNSt3__16vectorI16DistributionTypeNS_9allocatorIS1_EEE16__destroy_vectorclB8ue170006Ev, symObjAddr: 0x5428, symBinAddr: 0x100007278, symSize: 0x90 }
  - { offset: 0x24C04, size: 0x8, addend: 0x0, symName: __ZNSt3__16vectorI16DistributionTypeNS_9allocatorIS1_EEE7__clearB8ue170006Ev, symObjAddr: 0x54B8, symBinAddr: 0x100007308, symSize: 0x28 }
  - { offset: 0x24C2A, size: 0x8, addend: 0x0, symName: __ZNKSt3__16vectorI16DistributionTypeNS_9allocatorIS1_EEE17__annotate_deleteB8ue170006Ev, symObjAddr: 0x54E0, symBinAddr: 0x100007330, symSize: 0xB8 }
  - { offset: 0x24C50, size: 0x8, addend: 0x0, symName: __ZNSt3__116allocator_traitsINS_9allocatorI16DistributionTypeEEE10deallocateB8ue170006ERS3_PS2_m, symObjAddr: 0x5598, symBinAddr: 0x1000073E8, symSize: 0x34 }
  - { offset: 0x24C92, size: 0x8, addend: 0x0, symName: __ZNSt3__16vectorI16DistributionTypeNS_9allocatorIS1_EEE22__base_destruct_at_endB8ue170006EPS1_, symObjAddr: 0x55CC, symBinAddr: 0x10000741C, symSize: 0x8C }
  - { offset: 0x24CD6, size: 0x8, addend: 0x0, symName: __ZNSt3__116allocator_traitsINS_9allocatorI16DistributionTypeEEE7destroyB8ue170006IS2_vEEvRS3_PT_, symObjAddr: 0x5658, symBinAddr: 0x1000074A8, symSize: 0x2C }
  - { offset: 0x24D13, size: 0x8, addend: 0x0, symName: __ZNSt3__19allocatorI16DistributionTypeE7destroyB8ue170006EPS1_, symObjAddr: 0x5684, symBinAddr: 0x1000074D4, symSize: 0x14 }
  - { offset: 0x24D47, size: 0x8, addend: 0x0, symName: __ZNKSt3__16vectorI16DistributionTypeNS_9allocatorIS1_EEE4sizeB8ue170006Ev, symObjAddr: 0x5698, symBinAddr: 0x1000074E8, symSize: 0x28 }
  - { offset: 0x24D6D, size: 0x8, addend: 0x0, symName: __ZNSt3__19allocatorI16DistributionTypeE10deallocateB8ue170006EPS1_m, symObjAddr: 0x56C0, symBinAddr: 0x100007510, symSize: 0x40 }
  - { offset: 0x24DAF, size: 0x8, addend: 0x0, symName: __ZNSt3__16vectorI16DistributionTypeNS_9allocatorIS1_EEED2B8ue170006Ev, symObjAddr: 0x5700, symBinAddr: 0x100007550, symSize: 0x40 }
  - { offset: 0x24DD9, size: 0x8, addend: 0x0, symName: __ZNSt3__18functionIFiiiEEC2IPS1_vEET_, symObjAddr: 0x5740, symBinAddr: 0x100007590, symSize: 0x38 }
  - { offset: 0x24E1E, size: 0x8, addend: 0x0, symName: __ZNSt3__110__function12__value_funcIFiiiEEC1B8ue170006IPS2_vEEOT_, symObjAddr: 0x5778, symBinAddr: 0x1000075C8, symSize: 0x50 }
  - { offset: 0x24E61, size: 0x8, addend: 0x0, symName: __ZNSt3__19allocatorIPFiiiEEC1B8ue170006Ev, symObjAddr: 0x57C8, symBinAddr: 0x100007618, symSize: 0x2C }
  - { offset: 0x24E8B, size: 0x8, addend: 0x0, symName: __ZNSt3__110__function12__value_funcIFiiiEEC1B8ue170006IPS2_NS_9allocatorIS5_EEEEOT_RKT0_, symObjAddr: 0x57F4, symBinAddr: 0x100007644, symSize: 0x3C }
  - { offset: 0x24EE5, size: 0x8, addend: 0x0, symName: __ZNSt3__19allocatorIPFiiiEEC2B8ue170006Ev, symObjAddr: 0x5830, symBinAddr: 0x100007680, symSize: 0x2C }
  - { offset: 0x24F0F, size: 0x8, addend: 0x0, symName: __ZNSt3__116__non_trivial_ifILb1ENS_9allocatorIPFiiiEEEEC2B8ue170006Ev, symObjAddr: 0x585C, symBinAddr: 0x1000076AC, symSize: 0x14 }
  - { offset: 0x24F39, size: 0x8, addend: 0x0, symName: __ZNSt3__110__function12__value_funcIFiiiEEC2B8ue170006IPS2_NS_9allocatorIS5_EEEEOT_RKT0_, symObjAddr: 0x5870, symBinAddr: 0x1000076C0, symSize: 0x98 }
  - { offset: 0x24FE5, size: 0x8, addend: 0x0, symName: __ZNSt3__19allocatorINS_10__function6__funcIPFiiiENS0_IS4_EES3_EEEC1B8ue170006IS4_EERKNS0_IT_EE, symObjAddr: 0x5928, symBinAddr: 0x100007778, symSize: 0x34 }
  - { offset: 0x25029, size: 0x8, addend: 0x0, symName: __ZNSt3__19allocatorIPFiiiEEC1B8ue170006INS_10__function6__funcIS2_S3_S1_EEEERKNS0_IT_EE, symObjAddr: 0x595C, symBinAddr: 0x1000077AC, symSize: 0x34 }
  - { offset: 0x25067, size: 0x8, addend: 0x0, symName: __ZNSt3__110__function6__funcIPFiiiENS_9allocatorIS3_EES2_EC1B8ue170006EOS3_OS5_, symObjAddr: 0x5990, symBinAddr: 0x1000077E0, symSize: 0x3C }
  - { offset: 0x250AF, size: 0x8, addend: 0x0, symName: __ZNSt3__19allocatorINS_10__function6__funcIPFiiiENS0_IS4_EES3_EEEC2B8ue170006IS4_EERKNS0_IT_EE, symObjAddr: 0x59CC, symBinAddr: 0x10000781C, symSize: 0x30 }
  - { offset: 0x250ED, size: 0x8, addend: 0x0, symName: __ZNSt3__116__non_trivial_ifILb1ENS_9allocatorINS_10__function6__funcIPFiiiENS1_IS5_EES4_EEEEEC2B8ue170006Ev, symObjAddr: 0x59FC, symBinAddr: 0x10000784C, symSize: 0x14 }
  - { offset: 0x25117, size: 0x8, addend: 0x0, symName: __ZNSt3__19allocatorIPFiiiEEC2B8ue170006INS_10__function6__funcIS2_S3_S1_EEEERKNS0_IT_EE, symObjAddr: 0x5A10, symBinAddr: 0x100007860, symSize: 0x30 }
  - { offset: 0x25155, size: 0x8, addend: 0x0, symName: __ZNSt3__110__function6__funcIPFiiiENS_9allocatorIS3_EES2_EC2B8ue170006EOS3_OS5_, symObjAddr: 0x5A40, symBinAddr: 0x100007890, symSize: 0x80 }
  - { offset: 0x2519D, size: 0x8, addend: 0x0, symName: __ZNSt3__110__function6__baseIFiiiEEC2B8ue170006Ev, symObjAddr: 0x5AC0, symBinAddr: 0x100007910, symSize: 0x24 }
  - { offset: 0x251C7, size: 0x8, addend: 0x0, symName: __ZNSt3__110__function12__alloc_funcIPFiiiENS_9allocatorIS3_EES2_EC1B8ue170006EOS3_OS5_, symObjAddr: 0x5AE4, symBinAddr: 0x100007934, symSize: 0x3C }
  - { offset: 0x2520D, size: 0x8, addend: 0x0, symName: __ZNSt3__110__function6__baseIFiiiEED2Ev, symObjAddr: 0x5B20, symBinAddr: 0x100007970, symSize: 0x14 }
  - { offset: 0x25237, size: 0x8, addend: 0x0, symName: __ZNSt3__110__function6__funcIPFiiiENS_9allocatorIS3_EES2_ED1Ev, symObjAddr: 0x5B34, symBinAddr: 0x100007984, symSize: 0x2C }
  - { offset: 0x25264, size: 0x8, addend: 0x0, symName: __ZNSt3__110__function6__funcIPFiiiENS_9allocatorIS3_EES2_ED0Ev, symObjAddr: 0x5B60, symBinAddr: 0x1000079B0, symSize: 0x30 }
  - { offset: 0x25291, size: 0x8, addend: 0x0, symName: __ZNKSt3__110__function6__funcIPFiiiENS_9allocatorIS3_EES2_E7__cloneEv, symObjAddr: 0x5B90, symBinAddr: 0x1000079E0, symSize: 0xFC }
  - { offset: 0x252E3, size: 0x8, addend: 0x0, symName: __ZNKSt3__110__function6__funcIPFiiiENS_9allocatorIS3_EES2_E7__cloneEPNS0_6__baseIS2_EE, symObjAddr: 0x5C8C, symBinAddr: 0x100007ADC, symSize: 0x58 }
  - { offset: 0x2531A, size: 0x8, addend: 0x0, symName: __ZNSt3__110__function6__funcIPFiiiENS_9allocatorIS3_EES2_E7destroyEv, symObjAddr: 0x5CE4, symBinAddr: 0x100007B34, symSize: 0x28 }
  - { offset: 0x25342, size: 0x8, addend: 0x0, symName: __ZNSt3__110__function6__funcIPFiiiENS_9allocatorIS3_EES2_E18destroy_deallocateEv, symObjAddr: 0x5D0C, symBinAddr: 0x100007B5C, symSize: 0x58 }
  - { offset: 0x25385, size: 0x8, addend: 0x0, symName: __ZNSt3__110__function6__funcIPFiiiENS_9allocatorIS3_EES2_EclEOiS7_, symObjAddr: 0x5D64, symBinAddr: 0x100007BB4, symSize: 0x38 }
  - { offset: 0x253CB, size: 0x8, addend: 0x0, symName: __ZNKSt3__110__function6__funcIPFiiiENS_9allocatorIS3_EES2_E6targetERKSt9type_info, symObjAddr: 0x5D9C, symBinAddr: 0x100007BEC, symSize: 0x60 }
  - { offset: 0x25402, size: 0x8, addend: 0x0, symName: __ZNKSt3__110__function6__funcIPFiiiENS_9allocatorIS3_EES2_E11target_typeEv, symObjAddr: 0x5DFC, symBinAddr: 0x100007C4C, symSize: 0x18 }
  - { offset: 0x2542A, size: 0x8, addend: 0x0, symName: __ZNSt3__110__function6__baseIFiiiEED1Ev, symObjAddr: 0x5E14, symBinAddr: 0x100007C64, symSize: 0x14 }
  - { offset: 0x25454, size: 0x8, addend: 0x0, symName: __ZNSt3__110__function6__baseIFiiiEED0Ev, symObjAddr: 0x5E28, symBinAddr: 0x100007C78, symSize: 0xC }
  - { offset: 0x2547E, size: 0x8, addend: 0x0, symName: __ZNSt3__110__function12__alloc_funcIPFiiiENS_9allocatorIS3_EES2_EC2B8ue170006EOS3_OS5_, symObjAddr: 0x5E34, symBinAddr: 0x100007C84, symSize: 0x5C }
  - { offset: 0x254C4, size: 0x8, addend: 0x0, symName: __ZNSt3__117__compressed_pairIPFiiiENS_9allocatorIS2_EEEC1B8ue170006IJOS2_EJOS4_EEENS_21piecewise_construct_tENS_5tupleIJDpT_EEENSA_IJDpT0_EEE, symObjAddr: 0x5EE8, symBinAddr: 0x100007D38, symSize: 0x3C }
  - { offset: 0x2552E, size: 0x8, addend: 0x0, symName: __ZNSt3__15tupleIJOPFiiiEEEC1B8ue170006IJS2_ELi0EEEDpOT_, symObjAddr: 0x5F24, symBinAddr: 0x100007D74, symSize: 0x34 }
  - { offset: 0x25578, size: 0x8, addend: 0x0, symName: __ZNSt3__15tupleIJOPFiiiEEEC2B8ue170006IJS2_ELi0EEEDpOT_, symObjAddr: 0x5F58, symBinAddr: 0x100007DA8, symSize: 0x34 }
  - { offset: 0x255C2, size: 0x8, addend: 0x0, symName: __ZNSt3__112__tuple_implINS_15__tuple_indicesIJLm0EEEEJOPFiiiEEEC1B8ue170006IJLm0EEJS5_EJEJEJS4_EEENS1_IJXspT_EEEENS_13__tuple_typesIJDpT0_EEENS1_IJXspT1_EEEENS9_IJDpT2_EEEDpOT3_, symObjAddr: 0x5F8C, symBinAddr: 0x100007DDC, symSize: 0x34 }
  - { offset: 0x25653, size: 0x8, addend: 0x0, symName: __ZNSt3__112__tuple_implINS_15__tuple_indicesIJLm0EEEEJOPFiiiEEEC2B8ue170006IJLm0EEJS5_EJEJEJS4_EEENS1_IJXspT_EEEENS_13__tuple_typesIJDpT0_EEENS1_IJXspT1_EEEENS9_IJDpT2_EEEDpOT3_, symObjAddr: 0x5FC0, symBinAddr: 0x100007E10, symSize: 0x34 }
  - { offset: 0x256E4, size: 0x8, addend: 0x0, symName: __ZNSt3__112__tuple_leafILm0EOPFiiiELb0EEC2B8ue170006IS2_vEEOT_, symObjAddr: 0x5FF4, symBinAddr: 0x100007E44, symSize: 0x20 }
  - { offset: 0x25727, size: 0x8, addend: 0x0, symName: __ZNSt3__15tupleIJONS_9allocatorIPFiiiEEEEEC1B8ue170006IJS4_ELi0EEEDpOT_, symObjAddr: 0x6014, symBinAddr: 0x100007E64, symSize: 0x34 }
  - { offset: 0x25771, size: 0x8, addend: 0x0, symName: __ZNSt3__15tupleIJONS_9allocatorIPFiiiEEEEEC2B8ue170006IJS4_ELi0EEEDpOT_, symObjAddr: 0x6048, symBinAddr: 0x100007E98, symSize: 0x34 }
  - { offset: 0x257BB, size: 0x8, addend: 0x0, symName: __ZNSt3__112__tuple_implINS_15__tuple_indicesIJLm0EEEEJONS_9allocatorIPFiiiEEEEEC1B8ue170006IJLm0EEJS7_EJEJEJS6_EEENS1_IJXspT_EEEENS_13__tuple_typesIJDpT0_EEENS1_IJXspT1_EEEENSB_IJDpT2_EEEDpOT3_, symObjAddr: 0x607C, symBinAddr: 0x100007ECC, symSize: 0x34 }
  - { offset: 0x2584C, size: 0x8, addend: 0x0, symName: __ZNSt3__112__tuple_implINS_15__tuple_indicesIJLm0EEEEJONS_9allocatorIPFiiiEEEEEC2B8ue170006IJLm0EEJS7_EJEJEJS6_EEENS1_IJXspT_EEEENS_13__tuple_typesIJDpT0_EEENS1_IJXspT1_EEEENSB_IJDpT2_EEEDpOT3_, symObjAddr: 0x60B0, symBinAddr: 0x100007F00, symSize: 0x34 }
  - { offset: 0x258DD, size: 0x8, addend: 0x0, symName: __ZNSt3__112__tuple_leafILm0EONS_9allocatorIPFiiiEEELb0EEC2B8ue170006IS4_vEEOT_, symObjAddr: 0x60E4, symBinAddr: 0x100007F34, symSize: 0x20 }
  - { offset: 0x25920, size: 0x8, addend: 0x0, symName: __ZNSt3__117__compressed_pairIPFiiiENS_9allocatorIS2_EEEC2B8ue170006IJOS2_EJOS4_EEENS_21piecewise_construct_tENS_5tupleIJDpT_EEENSA_IJDpT0_EEE, symObjAddr: 0x6104, symBinAddr: 0x100007F54, symSize: 0x54 }
  - { offset: 0x2598A, size: 0x8, addend: 0x0, symName: __ZNSt3__122__compressed_pair_elemIPFiiiELi0ELb0EEC2B8ue170006IJOS2_EJLm0EEEENS_21piecewise_construct_tENS_5tupleIJDpT_EEENS_15__tuple_indicesIJXspT0_EEEE, symObjAddr: 0x6158, symBinAddr: 0x100007FA8, symSize: 0x44 }
  - { offset: 0x259EF, size: 0x8, addend: 0x0, symName: __ZNSt3__122__compressed_pair_elemINS_9allocatorIPFiiiEEELi1ELb1EEC2B8ue170006IJOS4_EJLm0EEEENS_21piecewise_construct_tENS_5tupleIJDpT_EEENS_15__tuple_indicesIJXspT0_EEEE, symObjAddr: 0x619C, symBinAddr: 0x100007FEC, symSize: 0x38 }
  - { offset: 0x25A54, size: 0x8, addend: 0x0, symName: __ZNSt3__112__tuple_leafILm0EOPFiiiELb0EE3getB8ue170006Ev, symObjAddr: 0x61F8, symBinAddr: 0x100008048, symSize: 0x18 }
  - { offset: 0x25A7A, size: 0x8, addend: 0x0, symName: __ZNSt3__112__tuple_leafILm0EONS_9allocatorIPFiiiEEELb0EE3getB8ue170006Ev, symObjAddr: 0x6234, symBinAddr: 0x100008084, symSize: 0x18 }
  - { offset: 0x25AA0, size: 0x8, addend: 0x0, symName: __ZNSt3__110__function6__funcIPFiiiENS_9allocatorIS3_EES2_ED2Ev, symObjAddr: 0x624C, symBinAddr: 0x10000809C, symSize: 0x2C }
  - { offset: 0x25ACD, size: 0x8, addend: 0x0, symName: __ZNKSt3__110__function12__alloc_funcIPFiiiENS_9allocatorIS3_EES2_E15__get_allocatorB8ue170006Ev, symObjAddr: 0x6278, symBinAddr: 0x1000080C8, symSize: 0x24 }
  - { offset: 0x25AF3, size: 0x8, addend: 0x0, symName: __ZNSt3__19allocatorINS_10__function6__funcIPFiiiENS0_IS4_EES3_EEE8allocateB8ue170006Em, symObjAddr: 0x629C, symBinAddr: 0x1000080EC, symSize: 0x58 }
  - { offset: 0x25B39, size: 0x8, addend: 0x0, symName: __ZNSt3__122__allocator_destructorINS_9allocatorINS_10__function6__funcIPFiiiENS1_IS5_EES4_EEEEEC1B8ue170006ERS8_m, symObjAddr: 0x62F4, symBinAddr: 0x100008144, symSize: 0x3C }
  - { offset: 0x25C20, size: 0x8, addend: 0x0, symName: __ZNSt3__110unique_ptrINS_10__function6__funcIPFiiiENS_9allocatorIS4_EES3_EENS_22__allocator_destructorINS5_IS7_EEEEEC1B8ue170006ILb1EvEEPS7_NS_16__dependent_typeINS_27__unique_ptr_deleter_sfinaeISA_EEXT_EE20__good_rval_ref_typeE, symObjAddr: 0x6330, symBinAddr: 0x100008180, symSize: 0x3C }
  - { offset: 0x25C71, size: 0x8, addend: 0x0, symName: __ZNKSt3__110unique_ptrINS_10__function6__funcIPFiiiENS_9allocatorIS4_EES3_EENS_22__allocator_destructorINS5_IS7_EEEEE3getB8ue170006Ev, symObjAddr: 0x636C, symBinAddr: 0x1000081BC, symSize: 0x28 }
  - { offset: 0x25C97, size: 0x8, addend: 0x0, symName: __ZNKSt3__110__function12__alloc_funcIPFiiiENS_9allocatorIS3_EES2_E8__targetB8ue170006Ev, symObjAddr: 0x6394, symBinAddr: 0x1000081E4, symSize: 0x24 }
  - { offset: 0x25CBD, size: 0x8, addend: 0x0, symName: __ZNSt3__110__function6__funcIPFiiiENS_9allocatorIS3_EES2_EC1B8ue170006ERKS3_OS5_, symObjAddr: 0x63B8, symBinAddr: 0x100008208, symSize: 0x3C }
  - { offset: 0x25D05, size: 0x8, addend: 0x0, symName: __ZNSt3__110unique_ptrINS_10__function6__funcIPFiiiENS_9allocatorIS4_EES3_EENS_22__allocator_destructorINS5_IS7_EEEEE7releaseB8ue170006Ev, symObjAddr: 0x63F4, symBinAddr: 0x100008244, symSize: 0x44 }
  - { offset: 0x25D3A, size: 0x8, addend: 0x0, symName: __ZNSt3__110unique_ptrINS_10__function6__funcIPFiiiENS_9allocatorIS4_EES3_EENS_22__allocator_destructorINS5_IS7_EEEEED1B8ue170006Ev, symObjAddr: 0x6438, symBinAddr: 0x100008288, symSize: 0x2C }
  - { offset: 0x25D64, size: 0x8, addend: 0x0, symName: __ZNKSt3__117__compressed_pairIPFiiiENS_9allocatorIS2_EEE6secondB8ue170006Ev, symObjAddr: 0x6464, symBinAddr: 0x1000082B4, symSize: 0x24 }
  - { offset: 0x25D8A, size: 0x8, addend: 0x0, symName: __ZNKSt3__122__compressed_pair_elemINS_9allocatorIPFiiiEEELi1ELb1EE5__getB8ue170006Ev, symObjAddr: 0x6488, symBinAddr: 0x1000082D8, symSize: 0x14 }
  - { offset: 0x25DBB, size: 0x8, addend: 0x0, symName: __ZNSt3__116allocator_traitsINS_9allocatorINS_10__function6__funcIPFiiiENS1_IS5_EES4_EEEEE8max_sizeB8ue170006IS8_vEEmRKS8_, symObjAddr: 0x649C, symBinAddr: 0x1000082EC, symSize: 0x24 }
  - { offset: 0x25DE9, size: 0x8, addend: 0x0, symName: __ZNKSt3__19allocatorINS_10__function6__funcIPFiiiENS0_IS4_EES3_EEE8max_sizeB8ue170006Ev, symObjAddr: 0x64C0, symBinAddr: 0x100008310, symSize: 0x14 }
  - { offset: 0x25E0F, size: 0x8, addend: 0x0, symName: __ZNSt3__122__allocator_destructorINS_9allocatorINS_10__function6__funcIPFiiiENS1_IS5_EES4_EEEEEC2B8ue170006ERS8_m, symObjAddr: 0x64D4, symBinAddr: 0x100008324, symSize: 0x2C }
  - { offset: 0x25E55, size: 0x8, addend: 0x0, symName: __ZNSt3__110unique_ptrINS_10__function6__funcIPFiiiENS_9allocatorIS4_EES3_EENS_22__allocator_destructorINS5_IS7_EEEEEC2B8ue170006ILb1EvEEPS7_NS_16__dependent_typeINS_27__unique_ptr_deleter_sfinaeISA_EEXT_EE20__good_rval_ref_typeE, symObjAddr: 0x6500, symBinAddr: 0x100008350, symSize: 0x48 }
  - { offset: 0x25EA6, size: 0x8, addend: 0x0, symName: __ZNSt3__117__compressed_pairIPNS_10__function6__funcIPFiiiENS_9allocatorIS4_EES3_EENS_22__allocator_destructorINS5_IS7_EEEEEC1B8ue170006IRS8_SB_EEOT_OT0_, symObjAddr: 0x6548, symBinAddr: 0x100008398, symSize: 0x3C }
  - { offset: 0x25EFE, size: 0x8, addend: 0x0, symName: __ZNSt3__117__compressed_pairIPNS_10__function6__funcIPFiiiENS_9allocatorIS4_EES3_EENS_22__allocator_destructorINS5_IS7_EEEEEC2B8ue170006IRS8_SB_EEOT_OT0_, symObjAddr: 0x6584, symBinAddr: 0x1000083D4, symSize: 0x48 }
  - { offset: 0x25F56, size: 0x8, addend: 0x0, symName: __ZNSt3__122__compressed_pair_elemIPNS_10__function6__funcIPFiiiENS_9allocatorIS4_EES3_EELi0ELb0EEC2B8ue170006IRS8_vEEOT_, symObjAddr: 0x65CC, symBinAddr: 0x10000841C, symSize: 0x24 }
  - { offset: 0x25F98, size: 0x8, addend: 0x0, symName: __ZNSt3__122__compressed_pair_elemINS_22__allocator_destructorINS_9allocatorINS_10__function6__funcIPFiiiENS2_IS6_EES5_EEEEEELi1ELb0EEC2B8ue170006ISA_vEEOT_, symObjAddr: 0x65F0, symBinAddr: 0x100008440, symSize: 0x24 }
  - { offset: 0x25FDA, size: 0x8, addend: 0x0, symName: __ZNKSt3__117__compressed_pairIPNS_10__function6__funcIPFiiiENS_9allocatorIS4_EES3_EENS_22__allocator_destructorINS5_IS7_EEEEE5firstB8ue170006Ev, symObjAddr: 0x6614, symBinAddr: 0x100008464, symSize: 0x24 }
  - { offset: 0x26000, size: 0x8, addend: 0x0, symName: __ZNKSt3__122__compressed_pair_elemIPNS_10__function6__funcIPFiiiENS_9allocatorIS4_EES3_EELi0ELb0EE5__getB8ue170006Ev, symObjAddr: 0x6638, symBinAddr: 0x100008488, symSize: 0x14 }
  - { offset: 0x26026, size: 0x8, addend: 0x0, symName: __ZNKSt3__117__compressed_pairIPFiiiENS_9allocatorIS2_EEE5firstB8ue170006Ev, symObjAddr: 0x664C, symBinAddr: 0x10000849C, symSize: 0x24 }
  - { offset: 0x2604C, size: 0x8, addend: 0x0, symName: __ZNKSt3__122__compressed_pair_elemIPFiiiELi0ELb0EE5__getB8ue170006Ev, symObjAddr: 0x6670, symBinAddr: 0x1000084C0, symSize: 0x14 }
  - { offset: 0x26072, size: 0x8, addend: 0x0, symName: __ZNSt3__110__function6__funcIPFiiiENS_9allocatorIS3_EES2_EC2B8ue170006ERKS3_OS5_, symObjAddr: 0x6684, symBinAddr: 0x1000084D4, symSize: 0x80 }
  - { offset: 0x260BA, size: 0x8, addend: 0x0, symName: __ZNSt3__110__function12__alloc_funcIPFiiiENS_9allocatorIS3_EES2_EC1B8ue170006ERKS3_OS5_, symObjAddr: 0x6704, symBinAddr: 0x100008554, symSize: 0x3C }
  - { offset: 0x26100, size: 0x8, addend: 0x0, symName: __ZNSt3__110__function12__alloc_funcIPFiiiENS_9allocatorIS3_EES2_EC2B8ue170006ERKS3_OS5_, symObjAddr: 0x6740, symBinAddr: 0x100008590, symSize: 0x5C }
  - { offset: 0x26146, size: 0x8, addend: 0x0, symName: __ZNSt3__117__compressed_pairIPFiiiENS_9allocatorIS2_EEEC1B8ue170006IJRKS2_EJOS4_EEENS_21piecewise_construct_tENS_5tupleIJDpT_EEENSB_IJDpT0_EEE, symObjAddr: 0x67C8, symBinAddr: 0x100008618, symSize: 0x3C }
  - { offset: 0x261B0, size: 0x8, addend: 0x0, symName: __ZNSt3__15tupleIJRKPFiiiEEEC1B8ue170006INS_4_AndELi0EEES4_, symObjAddr: 0x6804, symBinAddr: 0x100008654, symSize: 0x34 }
  - { offset: 0x261F8, size: 0x8, addend: 0x0, symName: __ZNSt3__15tupleIJRKPFiiiEEEC2B8ue170006INS_4_AndELi0EEES4_, symObjAddr: 0x6838, symBinAddr: 0x100008688, symSize: 0x34 }
  - { offset: 0x26240, size: 0x8, addend: 0x0, symName: __ZNSt3__112__tuple_implINS_15__tuple_indicesIJLm0EEEEJRKPFiiiEEEC1B8ue170006IJLm0EEJS6_EJEJEJS6_EEENS1_IJXspT_EEEENS_13__tuple_typesIJDpT0_EEENS1_IJXspT1_EEEENSA_IJDpT2_EEEDpOT3_, symObjAddr: 0x686C, symBinAddr: 0x1000086BC, symSize: 0x34 }
  - { offset: 0x262D1, size: 0x8, addend: 0x0, symName: __ZNSt3__112__tuple_implINS_15__tuple_indicesIJLm0EEEEJRKPFiiiEEEC2B8ue170006IJLm0EEJS6_EJEJEJS6_EEENS1_IJXspT_EEEENS_13__tuple_typesIJDpT0_EEENS1_IJXspT1_EEEENSA_IJDpT2_EEEDpOT3_, symObjAddr: 0x68A0, symBinAddr: 0x1000086F0, symSize: 0x34 }
  - { offset: 0x26362, size: 0x8, addend: 0x0, symName: __ZNSt3__112__tuple_leafILm0ERKPFiiiELb0EEC2B8ue170006IS4_vEEOT_, symObjAddr: 0x68D4, symBinAddr: 0x100008724, symSize: 0x20 }
  - { offset: 0x263A5, size: 0x8, addend: 0x0, symName: __ZNSt3__117__compressed_pairIPFiiiENS_9allocatorIS2_EEEC2B8ue170006IJRKS2_EJOS4_EEENS_21piecewise_construct_tENS_5tupleIJDpT_EEENSB_IJDpT0_EEE, symObjAddr: 0x68F4, symBinAddr: 0x100008744, symSize: 0x54 }
  - { offset: 0x2640F, size: 0x8, addend: 0x0, symName: __ZNSt3__122__compressed_pair_elemIPFiiiELi0ELb0EEC2B8ue170006IJRKS2_EJLm0EEEENS_21piecewise_construct_tENS_5tupleIJDpT_EEENS_15__tuple_indicesIJXspT0_EEEE, symObjAddr: 0x6948, symBinAddr: 0x100008798, symSize: 0x44 }
  - { offset: 0x26474, size: 0x8, addend: 0x0, symName: __ZNSt3__112__tuple_leafILm0ERKPFiiiELb0EE3getB8ue170006Ev, symObjAddr: 0x69B0, symBinAddr: 0x100008800, symSize: 0x18 }
  - { offset: 0x2649A, size: 0x8, addend: 0x0, symName: __ZNSt3__117__compressed_pairIPNS_10__function6__funcIPFiiiENS_9allocatorIS4_EES3_EENS_22__allocator_destructorINS5_IS7_EEEEE5firstB8ue170006Ev, symObjAddr: 0x69C8, symBinAddr: 0x100008818, symSize: 0x24 }
  - { offset: 0x264C0, size: 0x8, addend: 0x0, symName: __ZNSt3__122__compressed_pair_elemIPNS_10__function6__funcIPFiiiENS_9allocatorIS4_EES3_EELi0ELb0EE5__getB8ue170006Ev, symObjAddr: 0x69EC, symBinAddr: 0x10000883C, symSize: 0x14 }
  - { offset: 0x264E6, size: 0x8, addend: 0x0, symName: __ZNSt3__110unique_ptrINS_10__function6__funcIPFiiiENS_9allocatorIS4_EES3_EENS_22__allocator_destructorINS5_IS7_EEEEED2B8ue170006Ev, symObjAddr: 0x6A00, symBinAddr: 0x100008850, symSize: 0x30 }
  - { offset: 0x26510, size: 0x8, addend: 0x0, symName: __ZNSt3__110unique_ptrINS_10__function6__funcIPFiiiENS_9allocatorIS4_EES3_EENS_22__allocator_destructorINS5_IS7_EEEEE5resetB8ue170006EPS7_, symObjAddr: 0x6A30, symBinAddr: 0x100008880, symSize: 0x78 }
  - { offset: 0x26554, size: 0x8, addend: 0x0, symName: __ZNSt3__117__compressed_pairIPNS_10__function6__funcIPFiiiENS_9allocatorIS4_EES3_EENS_22__allocator_destructorINS5_IS7_EEEEE6secondB8ue170006Ev, symObjAddr: 0x6AA8, symBinAddr: 0x1000088F8, symSize: 0x28 }
  - { offset: 0x2657A, size: 0x8, addend: 0x0, symName: __ZNSt3__122__allocator_destructorINS_9allocatorINS_10__function6__funcIPFiiiENS1_IS5_EES4_EEEEEclB8ue170006EPS7_, symObjAddr: 0x6AD0, symBinAddr: 0x100008920, symSize: 0x34 }
  - { offset: 0x265AE, size: 0x8, addend: 0x0, symName: __ZNSt3__122__compressed_pair_elemINS_22__allocator_destructorINS_9allocatorINS_10__function6__funcIPFiiiENS2_IS6_EES5_EEEEEELi1ELb0EE5__getB8ue170006Ev, symObjAddr: 0x6B04, symBinAddr: 0x100008954, symSize: 0x14 }
  - { offset: 0x265D4, size: 0x8, addend: 0x0, symName: __ZNSt3__116allocator_traitsINS_9allocatorINS_10__function6__funcIPFiiiENS1_IS5_EES4_EEEEE10deallocateB8ue170006ERS8_PS7_m, symObjAddr: 0x6B18, symBinAddr: 0x100008968, symSize: 0x34 }
  - { offset: 0x26616, size: 0x8, addend: 0x0, symName: __ZNSt3__19allocatorINS_10__function6__funcIPFiiiENS0_IS4_EES3_EEE10deallocateB8ue170006EPS6_m, symObjAddr: 0x6B4C, symBinAddr: 0x10000899C, symSize: 0x40 }
  - { offset: 0x26658, size: 0x8, addend: 0x0, symName: __ZNSt3__110__function6__funcIPFiiiENS_9allocatorIS3_EES2_EC1B8ue170006ERKS3_RKS5_, symObjAddr: 0x6B8C, symBinAddr: 0x1000089DC, symSize: 0x3C }
  - { offset: 0x266A0, size: 0x8, addend: 0x0, symName: __ZNSt3__110__function6__funcIPFiiiENS_9allocatorIS3_EES2_EC2B8ue170006ERKS3_RKS5_, symObjAddr: 0x6BC8, symBinAddr: 0x100008A18, symSize: 0x80 }
  - { offset: 0x266E8, size: 0x8, addend: 0x0, symName: __ZNSt3__110__function12__alloc_funcIPFiiiENS_9allocatorIS3_EES2_EC1B8ue170006ERKS3_RKS5_, symObjAddr: 0x6C48, symBinAddr: 0x100008A98, symSize: 0x3C }
  - { offset: 0x2672E, size: 0x8, addend: 0x0, symName: __ZNSt3__110__function12__alloc_funcIPFiiiENS_9allocatorIS3_EES2_EC2B8ue170006ERKS3_RKS5_, symObjAddr: 0x6C84, symBinAddr: 0x100008AD4, symSize: 0x5C }
  - { offset: 0x26774, size: 0x8, addend: 0x0, symName: __ZNSt3__117__compressed_pairIPFiiiENS_9allocatorIS2_EEEC1B8ue170006IJRKS2_EJRKS4_EEENS_21piecewise_construct_tENS_5tupleIJDpT_EEENSC_IJDpT0_EEE, symObjAddr: 0x6D0C, symBinAddr: 0x100008B5C, symSize: 0x3C }
  - { offset: 0x267DE, size: 0x8, addend: 0x0, symName: __ZNSt3__15tupleIJRKNS_9allocatorIPFiiiEEEEEC1B8ue170006INS_4_AndELi0EEES6_, symObjAddr: 0x6D48, symBinAddr: 0x100008B98, symSize: 0x34 }
  - { offset: 0x26826, size: 0x8, addend: 0x0, symName: __ZNSt3__15tupleIJRKNS_9allocatorIPFiiiEEEEEC2B8ue170006INS_4_AndELi0EEES6_, symObjAddr: 0x6D7C, symBinAddr: 0x100008BCC, symSize: 0x34 }
  - { offset: 0x2686E, size: 0x8, addend: 0x0, symName: __ZNSt3__112__tuple_implINS_15__tuple_indicesIJLm0EEEEJRKNS_9allocatorIPFiiiEEEEEC1B8ue170006IJLm0EEJS8_EJEJEJS8_EEENS1_IJXspT_EEEENS_13__tuple_typesIJDpT0_EEENS1_IJXspT1_EEEENSC_IJDpT2_EEEDpOT3_, symObjAddr: 0x6DB0, symBinAddr: 0x100008C00, symSize: 0x34 }
  - { offset: 0x268FF, size: 0x8, addend: 0x0, symName: __ZNSt3__112__tuple_implINS_15__tuple_indicesIJLm0EEEEJRKNS_9allocatorIPFiiiEEEEEC2B8ue170006IJLm0EEJS8_EJEJEJS8_EEENS1_IJXspT_EEEENS_13__tuple_typesIJDpT0_EEENS1_IJXspT1_EEEENSC_IJDpT2_EEEDpOT3_, symObjAddr: 0x6DE4, symBinAddr: 0x100008C34, symSize: 0x34 }
  - { offset: 0x26990, size: 0x8, addend: 0x0, symName: __ZNSt3__112__tuple_leafILm0ERKNS_9allocatorIPFiiiEEELb0EEC2B8ue170006IS6_vEEOT_, symObjAddr: 0x6E18, symBinAddr: 0x100008C68, symSize: 0x20 }
  - { offset: 0x269D3, size: 0x8, addend: 0x0, symName: __ZNSt3__117__compressed_pairIPFiiiENS_9allocatorIS2_EEEC2B8ue170006IJRKS2_EJRKS4_EEENS_21piecewise_construct_tENS_5tupleIJDpT_EEENSC_IJDpT0_EEE, symObjAddr: 0x6E38, symBinAddr: 0x100008C88, symSize: 0x54 }
  - { offset: 0x26A3D, size: 0x8, addend: 0x0, symName: __ZNSt3__122__compressed_pair_elemINS_9allocatorIPFiiiEEELi1ELb1EEC2B8ue170006IJRKS4_EJLm0EEEENS_21piecewise_construct_tENS_5tupleIJDpT_EEENS_15__tuple_indicesIJXspT0_EEEE, symObjAddr: 0x6E8C, symBinAddr: 0x100008CDC, symSize: 0x38 }
  - { offset: 0x26AA2, size: 0x8, addend: 0x0, symName: __ZNSt3__112__tuple_leafILm0ERKNS_9allocatorIPFiiiEEELb0EE3getB8ue170006Ev, symObjAddr: 0x6EE8, symBinAddr: 0x100008D38, symSize: 0x18 }
  - { offset: 0x26AC8, size: 0x8, addend: 0x0, symName: __ZNSt3__110__function12__alloc_funcIPFiiiENS_9allocatorIS3_EES2_E7destroyB8ue170006Ev, symObjAddr: 0x6F00, symBinAddr: 0x100008D50, symSize: 0x10 }
  - { offset: 0x26AEE, size: 0x8, addend: 0x0, symName: __ZNSt3__110__function12__alloc_funcIPFiiiENS_9allocatorIS3_EES2_EclB8ue170006EOiS7_, symObjAddr: 0x6F10, symBinAddr: 0x100008D60, symSize: 0x38 }
  - { offset: 0x26B30, size: 0x8, addend: 0x0, symName: __ZNSt3__128__invoke_void_return_wrapperIiLb0EE6__callB8ue170006IJRPFiiiEiiEEEiDpOT_, symObjAddr: 0x6F48, symBinAddr: 0x100008D98, symSize: 0x34 }
  - { offset: 0x26B87, size: 0x8, addend: 0x0, symName: __ZNSt3__117__compressed_pairIPFiiiENS_9allocatorIS2_EEE5firstB8ue170006Ev, symObjAddr: 0x6F7C, symBinAddr: 0x100008DCC, symSize: 0x24 }
  - { offset: 0x26BAD, size: 0x8, addend: 0x0, symName: __ZNSt3__122__compressed_pair_elemIPFiiiELi0ELb0EE5__getB8ue170006Ev, symObjAddr: 0x6FE0, symBinAddr: 0x100008E30, symSize: 0x14 }
  - { offset: 0x26C09, size: 0x8, addend: 0x0, symName: __ZNKSt9type_infoeqB8ue170006ERKS_, symObjAddr: 0x6FF4, symBinAddr: 0x100008E44, symSize: 0xDC }
  - { offset: 0x26CA7, size: 0x8, addend: 0x0, symName: __ZNSt27__type_info_implementations30__non_unique_arm_rtti_bit_impl21__is_type_name_uniqueB8ue170006Em, symObjAddr: 0x70D0, symBinAddr: 0x100008F20, symSize: 0x20 }
  - { offset: 0x26CCB, size: 0x8, addend: 0x0, symName: __ZNSt3__16vectorINS_8functionIFiiiEEENS_9allocatorIS3_EEEC2B8ue170006ESt16initializer_listIS3_E, symObjAddr: 0x70F0, symBinAddr: 0x100008F40, symSize: 0x120 }
  - { offset: 0x26D1B, size: 0x8, addend: 0x0, symName: __ZNSt3__117__compressed_pairIPNS_8functionIFiiiEEENS_9allocatorIS3_EEEC1B8ue170006IDnNS_18__default_init_tagEEEOT_OT0_, symObjAddr: 0x7210, symBinAddr: 0x100009060, symSize: 0x3C }
  - { offset: 0x26D73, size: 0x8, addend: 0x0, symName: __ZNSt3__16vectorINS_8functionIFiiiEEENS_9allocatorIS3_EEE16__destroy_vectorC1B8ue170006ERS6_, symObjAddr: 0x728C, symBinAddr: 0x1000090DC, symSize: 0x34 }
  - { offset: 0x26DAC, size: 0x8, addend: 0x0, symName: __ZNKSt16initializer_listINSt3__18functionIFiiiEEEE4sizeB8ue170006Ev, symObjAddr: 0x72C0, symBinAddr: 0x100009110, symSize: 0x18 }
  - { offset: 0x26DD2, size: 0x8, addend: 0x0, symName: __ZNSt3__16vectorINS_8functionIFiiiEEENS_9allocatorIS3_EEE11__vallocateB8ue170006Em, symObjAddr: 0x72D8, symBinAddr: 0x100009128, symSize: 0xAC }
  - { offset: 0x26E16, size: 0x8, addend: 0x0, symName: __ZNSt3__16vectorINS_8functionIFiiiEEENS_9allocatorIS3_EEE18__construct_at_endIPKS3_S9_EEvT_T0_m, symObjAddr: 0x7384, symBinAddr: 0x1000091D4, symSize: 0x8C }
  - { offset: 0x26E8C, size: 0x8, addend: 0x0, symName: __ZNKSt16initializer_listINSt3__18functionIFiiiEEEE5beginB8ue170006Ev, symObjAddr: 0x7410, symBinAddr: 0x100009260, symSize: 0x18 }
  - { offset: 0x26EB2, size: 0x8, addend: 0x0, symName: __ZNKSt16initializer_listINSt3__18functionIFiiiEEEE3endB8ue170006Ev, symObjAddr: 0x7428, symBinAddr: 0x100009278, symSize: 0x20 }
  - { offset: 0x26ED8, size: 0x8, addend: 0x0, symName: __ZNSt3__128__exception_guard_exceptionsINS_6vectorINS_8functionIFiiiEEENS_9allocatorIS4_EEE16__destroy_vectorEE10__completeB8ue170006Ev, symObjAddr: 0x7448, symBinAddr: 0x100009298, symSize: 0x1C }
  - { offset: 0x26EFE, size: 0x8, addend: 0x0, symName: __ZNSt3__128__exception_guard_exceptionsINS_6vectorINS_8functionIFiiiEEENS_9allocatorIS4_EEE16__destroy_vectorEED1B8ue170006Ev, symObjAddr: 0x7464, symBinAddr: 0x1000092B4, symSize: 0x2C }
  - { offset: 0x26F28, size: 0x8, addend: 0x0, symName: __ZNSt3__117__compressed_pairIPNS_8functionIFiiiEEENS_9allocatorIS3_EEEC2B8ue170006IDnNS_18__default_init_tagEEEOT_OT0_, symObjAddr: 0x7490, symBinAddr: 0x1000092E0, symSize: 0x40 }
  - { offset: 0x26F80, size: 0x8, addend: 0x0, symName: __ZNSt3__122__compressed_pair_elemIPNS_8functionIFiiiEEELi0ELb0EEC2B8ue170006IDnvEEOT_, symObjAddr: 0x74D0, symBinAddr: 0x100009320, symSize: 0x1C }
  - { offset: 0x26FC2, size: 0x8, addend: 0x0, symName: __ZNSt3__122__compressed_pair_elemINS_9allocatorINS_8functionIFiiiEEEEELi1ELb1EEC2B8ue170006ENS_18__default_init_tagE, symObjAddr: 0x74EC, symBinAddr: 0x10000933C, symSize: 0x2C }
  - { offset: 0x26FF7, size: 0x8, addend: 0x0, symName: __ZNSt3__19allocatorINS_8functionIFiiiEEEEC2B8ue170006Ev, symObjAddr: 0x7518, symBinAddr: 0x100009368, symSize: 0x2C }
  - { offset: 0x27021, size: 0x8, addend: 0x0, symName: __ZNSt3__116__non_trivial_ifILb1ENS_9allocatorINS_8functionIFiiiEEEEEEC2B8ue170006Ev, symObjAddr: 0x7544, symBinAddr: 0x100009394, symSize: 0x14 }
  - { offset: 0x2704B, size: 0x8, addend: 0x0, symName: __ZNSt3__128__exception_guard_exceptionsINS_6vectorINS_8functionIFiiiEEENS_9allocatorIS4_EEE16__destroy_vectorEEC1B8ue170006ES8_, symObjAddr: 0x7558, symBinAddr: 0x1000093A8, symSize: 0x34 }
  - { offset: 0x27083, size: 0x8, addend: 0x0, symName: __ZNSt3__128__exception_guard_exceptionsINS_6vectorINS_8functionIFiiiEEENS_9allocatorIS4_EEE16__destroy_vectorEEC2B8ue170006ES8_, symObjAddr: 0x758C, symBinAddr: 0x1000093DC, symSize: 0x24 }
  - { offset: 0x270BB, size: 0x8, addend: 0x0, symName: __ZNSt3__16vectorINS_8functionIFiiiEEENS_9allocatorIS3_EEE16__destroy_vectorC2B8ue170006ERS6_, symObjAddr: 0x75B0, symBinAddr: 0x100009400, symSize: 0x20 }
  - { offset: 0x270F4, size: 0x8, addend: 0x0, symName: __ZNKSt3__16vectorINS_8functionIFiiiEEENS_9allocatorIS3_EEE8max_sizeEv, symObjAddr: 0x75D0, symBinAddr: 0x100009420, symSize: 0x60 }
  - { offset: 0x2711C, size: 0x8, addend: 0x0, symName: __ZNKSt3__16vectorINS_8functionIFiiiEEENS_9allocatorIS3_EEE20__throw_length_errorB8ue170006Ev, symObjAddr: 0x7630, symBinAddr: 0x100009480, symSize: 0x1C }
  - { offset: 0x27142, size: 0x8, addend: 0x0, symName: __ZNSt3__16vectorINS_8functionIFiiiEEENS_9allocatorIS3_EEE7__allocB8ue170006Ev, symObjAddr: 0x768C, symBinAddr: 0x1000094DC, symSize: 0x28 }
  - { offset: 0x27168, size: 0x8, addend: 0x0, symName: __ZNSt3__16vectorINS_8functionIFiiiEEENS_9allocatorIS3_EEE9__end_capB8ue170006Ev, symObjAddr: 0x76B4, symBinAddr: 0x100009504, symSize: 0x28 }
  - { offset: 0x2718E, size: 0x8, addend: 0x0, symName: __ZNKSt3__16vectorINS_8functionIFiiiEEENS_9allocatorIS3_EEE14__annotate_newB8ue170006Em, symObjAddr: 0x76DC, symBinAddr: 0x10000952C, symSize: 0xAC }
  - { offset: 0x271CE, size: 0x8, addend: 0x0, symName: __ZNSt3__116allocator_traitsINS_9allocatorINS_8functionIFiiiEEEEEE8max_sizeB8ue170006IS5_vEEmRKS5_, symObjAddr: 0x7788, symBinAddr: 0x1000095D8, symSize: 0x24 }
  - { offset: 0x271FC, size: 0x8, addend: 0x0, symName: __ZNKSt3__16vectorINS_8functionIFiiiEEENS_9allocatorIS3_EEE7__allocB8ue170006Ev, symObjAddr: 0x77AC, symBinAddr: 0x1000095FC, symSize: 0x28 }
  - { offset: 0x27222, size: 0x8, addend: 0x0, symName: __ZNKSt3__19allocatorINS_8functionIFiiiEEEE8max_sizeB8ue170006Ev, symObjAddr: 0x77D4, symBinAddr: 0x100009624, symSize: 0x14 }
  - { offset: 0x27248, size: 0x8, addend: 0x0, symName: __ZNKSt3__117__compressed_pairIPNS_8functionIFiiiEEENS_9allocatorIS3_EEE6secondB8ue170006Ev, symObjAddr: 0x77E8, symBinAddr: 0x100009638, symSize: 0x24 }
  - { offset: 0x2726E, size: 0x8, addend: 0x0, symName: __ZNKSt3__122__compressed_pair_elemINS_9allocatorINS_8functionIFiiiEEEEELi1ELb1EE5__getB8ue170006Ev, symObjAddr: 0x780C, symBinAddr: 0x10000965C, symSize: 0x14 }
  - { offset: 0x27294, size: 0x8, addend: 0x0, symName: __ZNSt3__19allocatorINS_8functionIFiiiEEEE8allocateB8ue170006Em, symObjAddr: 0x7820, symBinAddr: 0x100009670, symSize: 0x58 }
  - { offset: 0x272C8, size: 0x8, addend: 0x0, symName: __ZNSt3__117__compressed_pairIPNS_8functionIFiiiEEENS_9allocatorIS3_EEE6secondB8ue170006Ev, symObjAddr: 0x7878, symBinAddr: 0x1000096C8, symSize: 0x24 }
  - { offset: 0x272EE, size: 0x8, addend: 0x0, symName: __ZNSt3__122__compressed_pair_elemINS_9allocatorINS_8functionIFiiiEEEEELi1ELb1EE5__getB8ue170006Ev, symObjAddr: 0x789C, symBinAddr: 0x1000096EC, symSize: 0x14 }
  - { offset: 0x27314, size: 0x8, addend: 0x0, symName: __ZNSt3__117__compressed_pairIPNS_8functionIFiiiEEENS_9allocatorIS3_EEE5firstB8ue170006Ev, symObjAddr: 0x78B0, symBinAddr: 0x100009700, symSize: 0x24 }
  - { offset: 0x2733A, size: 0x8, addend: 0x0, symName: __ZNSt3__122__compressed_pair_elemIPNS_8functionIFiiiEEELi0ELb0EE5__getB8ue170006Ev, symObjAddr: 0x78D4, symBinAddr: 0x100009724, symSize: 0x14 }
  - { offset: 0x27360, size: 0x8, addend: 0x0, symName: __ZNKSt3__16vectorINS_8functionIFiiiEEENS_9allocatorIS3_EEE31__annotate_contiguous_containerB8ue170006EPKvS8_S8_S8_, symObjAddr: 0x78E8, symBinAddr: 0x100009738, symSize: 0x20 }
  - { offset: 0x273B2, size: 0x8, addend: 0x0, symName: __ZNKSt3__16vectorINS_8functionIFiiiEEENS_9allocatorIS3_EEE4dataB8ue170006Ev, symObjAddr: 0x7908, symBinAddr: 0x100009758, symSize: 0x28 }
  - { offset: 0x273D8, size: 0x8, addend: 0x0, symName: __ZNKSt3__16vectorINS_8functionIFiiiEEENS_9allocatorIS3_EEE8capacityB8ue170006Ev, symObjAddr: 0x7930, symBinAddr: 0x100009780, symSize: 0x40 }
  - { offset: 0x273FE, size: 0x8, addend: 0x0, symName: __ZNKSt3__16vectorINS_8functionIFiiiEEENS_9allocatorIS3_EEE9__end_capB8ue170006Ev, symObjAddr: 0x7984, symBinAddr: 0x1000097D4, symSize: 0x28 }
  - { offset: 0x27424, size: 0x8, addend: 0x0, symName: __ZNKSt3__117__compressed_pairIPNS_8functionIFiiiEEENS_9allocatorIS3_EEE5firstB8ue170006Ev, symObjAddr: 0x79AC, symBinAddr: 0x1000097FC, symSize: 0x24 }
  - { offset: 0x2744A, size: 0x8, addend: 0x0, symName: __ZNKSt3__122__compressed_pair_elemIPNS_8functionIFiiiEEELi0ELb0EE5__getB8ue170006Ev, symObjAddr: 0x79D0, symBinAddr: 0x100009820, symSize: 0x14 }
  - { offset: 0x2748C, size: 0x8, addend: 0x0, symName: __ZNSt3__16vectorINS_8functionIFiiiEEENS_9allocatorIS3_EEE21_ConstructTransactionC1B8ue170006ERS6_m, symObjAddr: 0x79E4, symBinAddr: 0x100009834, symSize: 0x3C }
  - { offset: 0x274D4, size: 0x8, addend: 0x0, symName: __ZNSt3__16vectorINS_8functionIFiiiEEENS_9allocatorIS3_EEE21_ConstructTransactionD1B8ue170006Ev, symObjAddr: 0x7AA0, symBinAddr: 0x1000098F0, symSize: 0x2C }
  - { offset: 0x274FE, size: 0x8, addend: 0x0, symName: __ZNSt3__16vectorINS_8functionIFiiiEEENS_9allocatorIS3_EEE21_ConstructTransactionC2B8ue170006ERS6_m, symObjAddr: 0x7ACC, symBinAddr: 0x10000991C, symSize: 0x44 }
  - { offset: 0x27569, size: 0x8, addend: 0x0, symName: __ZNSt3__14pairIPKNS_8functionIFiiiEEES5_EC1B8ue170006IS5_S5_LPv0EEEOT_OT0_, symObjAddr: 0x7D20, symBinAddr: 0x100009B70, symSize: 0x3C }
  - { offset: 0x275C7, size: 0x8, addend: 0x0, symName: __ZNSt3__14pairIPKNS_8functionIFiiiEEES5_EC2B8ue170006IS5_S5_LPv0EEEOT_OT0_, symObjAddr: 0x7D5C, symBinAddr: 0x100009BAC, symSize: 0x34 }
  - { offset: 0x27625, size: 0x8, addend: 0x0, symName: __ZNSt3__118__unwrap_iter_implIPKNS_8functionIFiiiEEELb1EE8__unwrapB8ue170006ES5_, symObjAddr: 0x7D90, symBinAddr: 0x100009BE0, symSize: 0x24 }
  - { offset: 0x27648, size: 0x8, addend: 0x0, symName: __ZNSt3__129_AllocatorDestroyRangeReverseINS_9allocatorINS_8functionIFiiiEEEEEPS4_EC1B8ue170006ERS5_RS6_S9_, symObjAddr: 0x7E14, symBinAddr: 0x100009C64, symSize: 0x44 }
  - { offset: 0x2769F, size: 0x8, addend: 0x0, symName: __ZNSt3__116allocator_traitsINS_9allocatorINS_8functionIFiiiEEEEEE9constructB8ue170006IS4_JRKS4_EvEEvRS5_PT_DpOT0_, symObjAddr: 0x7E58, symBinAddr: 0x100009CA8, symSize: 0x34 }
  - { offset: 0x276F6, size: 0x8, addend: 0x0, symName: __ZNSt3__128__exception_guard_exceptionsINS_29_AllocatorDestroyRangeReverseINS_9allocatorINS_8functionIFiiiEEEEEPS5_EEE10__completeB8ue170006Ev, symObjAddr: 0x7E8C, symBinAddr: 0x100009CDC, symSize: 0x1C }
  - { offset: 0x2771C, size: 0x8, addend: 0x0, symName: __ZNSt3__128__exception_guard_exceptionsINS_29_AllocatorDestroyRangeReverseINS_9allocatorINS_8functionIFiiiEEEEEPS5_EEED1B8ue170006Ev, symObjAddr: 0x7EA8, symBinAddr: 0x100009CF8, symSize: 0x2C }
  - { offset: 0x27746, size: 0x8, addend: 0x0, symName: __ZNSt3__128__exception_guard_exceptionsINS_29_AllocatorDestroyRangeReverseINS_9allocatorINS_8functionIFiiiEEEEEPS5_EEEC1B8ue170006ES8_, symObjAddr: 0x7ED4, symBinAddr: 0x100009D24, symSize: 0x34 }
  - { offset: 0x2777F, size: 0x8, addend: 0x0, symName: __ZNSt3__128__exception_guard_exceptionsINS_29_AllocatorDestroyRangeReverseINS_9allocatorINS_8functionIFiiiEEEEEPS5_EEEC2B8ue170006ES8_, symObjAddr: 0x7F08, symBinAddr: 0x100009D58, symSize: 0x30 }
  - { offset: 0x277B8, size: 0x8, addend: 0x0, symName: __ZNSt3__129_AllocatorDestroyRangeReverseINS_9allocatorINS_8functionIFiiiEEEEEPS4_EC2B8ue170006ERS5_RS6_S9_, symObjAddr: 0x7F38, symBinAddr: 0x100009D88, symSize: 0x38 }
  - { offset: 0x2780F, size: 0x8, addend: 0x0, symName: __ZNSt3__19allocatorINS_8functionIFiiiEEEE9constructB8ue170006IS3_JRKS3_EEEvPT_DpOT0_, symObjAddr: 0x7F70, symBinAddr: 0x100009DC0, symSize: 0x30 }
  - { offset: 0x27865, size: 0x8, addend: 0x0, symName: __ZNSt3__128__exception_guard_exceptionsINS_29_AllocatorDestroyRangeReverseINS_9allocatorINS_8functionIFiiiEEEEEPS5_EEED2B8ue170006Ev, symObjAddr: 0x7FA0, symBinAddr: 0x100009DF0, symSize: 0x50 }
  - { offset: 0x2788F, size: 0x8, addend: 0x0, symName: __ZNKSt3__129_AllocatorDestroyRangeReverseINS_9allocatorINS_8functionIFiiiEEEEEPS4_EclB8ue170006Ev, symObjAddr: 0x7FF0, symBinAddr: 0x100009E40, symSize: 0x68 }
  - { offset: 0x278B5, size: 0x8, addend: 0x0, symName: __ZNSt3__116reverse_iteratorIPNS_8functionIFiiiEEEEC1B8ue170006ES4_, symObjAddr: 0x80C8, symBinAddr: 0x100009F18, symSize: 0x34 }
  - { offset: 0x278ED, size: 0x8, addend: 0x0, symName: __ZNSt3__116allocator_traitsINS_9allocatorINS_8functionIFiiiEEEEEE7destroyB8ue170006IS4_vEEvRS5_PT_, symObjAddr: 0x8144, symBinAddr: 0x100009F94, symSize: 0x2C }
  - { offset: 0x2792A, size: 0x8, addend: 0x0, symName: __ZNSt3__116reverse_iteratorIPNS_8functionIFiiiEEEEppB8ue170006Ev, symObjAddr: 0x8194, symBinAddr: 0x100009FE4, symSize: 0x20 }
  - { offset: 0x27950, size: 0x8, addend: 0x0, symName: __ZNKSt3__116reverse_iteratorIPNS_8functionIFiiiEEEE4baseB8ue170006Ev, symObjAddr: 0x81B4, symBinAddr: 0x10000A004, symSize: 0x18 }
  - { offset: 0x27976, size: 0x8, addend: 0x0, symName: __ZNSt3__19allocatorINS_8functionIFiiiEEEE7destroyB8ue170006EPS3_, symObjAddr: 0x81CC, symBinAddr: 0x10000A01C, symSize: 0x28 }
  - { offset: 0x279B0, size: 0x8, addend: 0x0, symName: __ZNSt3__119__to_address_helperINS_16reverse_iteratorIPNS_8functionIFiiiEEEEEvE6__callB8ue170006ERKS6_, symObjAddr: 0x81F4, symBinAddr: 0x10000A044, symSize: 0x38 }
  - { offset: 0x279D3, size: 0x8, addend: 0x0, symName: __ZNKSt3__116reverse_iteratorIPNS_8functionIFiiiEEEEptB8ue170006Ev, symObjAddr: 0x822C, symBinAddr: 0x10000A07C, symSize: 0x24 }
  - { offset: 0x279F9, size: 0x8, addend: 0x0, symName: __ZNKSt3__116reverse_iteratorIPNS_8functionIFiiiEEEEdeB8ue170006Ev, symObjAddr: 0x8250, symBinAddr: 0x10000A0A0, symSize: 0x28 }
  - { offset: 0x27A2D, size: 0x8, addend: 0x0, symName: __ZNSt3__116reverse_iteratorIPNS_8functionIFiiiEEEEC2B8ue170006ES4_, symObjAddr: 0x8278, symBinAddr: 0x10000A0C8, symSize: 0x28 }
  - { offset: 0x27A65, size: 0x8, addend: 0x0, symName: __ZNSt3__118__unwrap_iter_implIPNS_8functionIFiiiEEELb1EE8__unwrapB8ue170006ES4_, symObjAddr: 0x82A0, symBinAddr: 0x10000A0F0, symSize: 0x24 }
  - { offset: 0x27A88, size: 0x8, addend: 0x0, symName: __ZNSt3__118__unwrap_iter_implIPNS_8functionIFiiiEEELb1EE8__rewrapB8ue170006ES4_S4_, symObjAddr: 0x82C4, symBinAddr: 0x10000A114, symSize: 0x50 }
  - { offset: 0x27AB9, size: 0x8, addend: 0x0, symName: __ZNSt3__16vectorINS_8functionIFiiiEEENS_9allocatorIS3_EEE21_ConstructTransactionD2B8ue170006Ev, symObjAddr: 0x8314, symBinAddr: 0x10000A164, symSize: 0x20 }
  - { offset: 0x27AE3, size: 0x8, addend: 0x0, symName: __ZNSt3__128__exception_guard_exceptionsINS_6vectorINS_8functionIFiiiEEENS_9allocatorIS4_EEE16__destroy_vectorEED2B8ue170006Ev, symObjAddr: 0x8334, symBinAddr: 0x10000A184, symSize: 0x50 }
  - { offset: 0x27B0D, size: 0x8, addend: 0x0, symName: __ZNSt3__16vectorINS_8functionIFiiiEEENS_9allocatorIS3_EEE16__destroy_vectorclB8ue170006Ev, symObjAddr: 0x8384, symBinAddr: 0x10000A1D4, symSize: 0x90 }
  - { offset: 0x27B33, size: 0x8, addend: 0x0, symName: __ZNSt3__16vectorINS_8functionIFiiiEEENS_9allocatorIS3_EEE7__clearB8ue170006Ev, symObjAddr: 0x8414, symBinAddr: 0x10000A264, symSize: 0x28 }
  - { offset: 0x27B59, size: 0x8, addend: 0x0, symName: __ZNKSt3__16vectorINS_8functionIFiiiEEENS_9allocatorIS3_EEE17__annotate_deleteB8ue170006Ev, symObjAddr: 0x843C, symBinAddr: 0x10000A28C, symSize: 0xB8 }
  - { offset: 0x27B7F, size: 0x8, addend: 0x0, symName: __ZNSt3__116allocator_traitsINS_9allocatorINS_8functionIFiiiEEEEEE10deallocateB8ue170006ERS5_PS4_m, symObjAddr: 0x84F4, symBinAddr: 0x10000A344, symSize: 0x34 }
  - { offset: 0x27BC1, size: 0x8, addend: 0x0, symName: __ZNSt3__16vectorINS_8functionIFiiiEEENS_9allocatorIS3_EEE22__base_destruct_at_endB8ue170006EPS3_, symObjAddr: 0x8528, symBinAddr: 0x10000A378, symSize: 0x8C }
  - { offset: 0x27C05, size: 0x8, addend: 0x0, symName: __ZNKSt3__16vectorINS_8functionIFiiiEEENS_9allocatorIS3_EEE4sizeB8ue170006Ev, symObjAddr: 0x85B4, symBinAddr: 0x10000A404, symSize: 0x28 }
  - { offset: 0x27C2B, size: 0x8, addend: 0x0, symName: __ZNSt3__19allocatorINS_8functionIFiiiEEEE10deallocateB8ue170006EPS3_m, symObjAddr: 0x85DC, symBinAddr: 0x10000A42C, symSize: 0x40 }
  - { offset: 0x27C6D, size: 0x8, addend: 0x0, symName: __ZNSt3__16vectorINS_8functionIFiiiEEENS_9allocatorIS3_EEED2B8ue170006Ev, symObjAddr: 0x861C, symBinAddr: 0x10000A46C, symSize: 0x40 }
  - { offset: 0x27C97, size: 0x8, addend: 0x0, symName: __ZNSt3__16vectorINS_12basic_stringIcNS_11char_traitsIcEENS_9allocatorIcEEEENS4_IS6_EEEC2B8ue170006ESt16initializer_listIS6_E, symObjAddr: 0x865C, symBinAddr: 0x10000A4AC, symSize: 0x120 }
  - { offset: 0x27CE7, size: 0x8, addend: 0x0, symName: __ZNSt3__117__compressed_pairIPNS_12basic_stringIcNS_11char_traitsIcEENS_9allocatorIcEEEENS4_IS6_EEEC1B8ue170006IDnNS_18__default_init_tagEEEOT_OT0_, symObjAddr: 0x877C, symBinAddr: 0x10000A5CC, symSize: 0x3C }
  - { offset: 0x27D3F, size: 0x8, addend: 0x0, symName: __ZNSt3__16vectorINS_12basic_stringIcNS_11char_traitsIcEENS_9allocatorIcEEEENS4_IS6_EEE16__destroy_vectorC1B8ue170006ERS8_, symObjAddr: 0x87F8, symBinAddr: 0x10000A648, symSize: 0x34 }
  - { offset: 0x27D78, size: 0x8, addend: 0x0, symName: __ZNKSt16initializer_listINSt3__112basic_stringIcNS0_11char_traitsIcEENS0_9allocatorIcEEEEE4sizeB8ue170006Ev, symObjAddr: 0x882C, symBinAddr: 0x10000A67C, symSize: 0x18 }
  - { offset: 0x27D9E, size: 0x8, addend: 0x0, symName: __ZNSt3__16vectorINS_12basic_stringIcNS_11char_traitsIcEENS_9allocatorIcEEEENS4_IS6_EEE11__vallocateB8ue170006Em, symObjAddr: 0x8844, symBinAddr: 0x10000A694, symSize: 0xB4 }
  - { offset: 0x27DE2, size: 0x8, addend: 0x0, symName: __ZNSt3__16vectorINS_12basic_stringIcNS_11char_traitsIcEENS_9allocatorIcEEEENS4_IS6_EEE18__construct_at_endIPKS6_SB_EEvT_T0_m, symObjAddr: 0x88F8, symBinAddr: 0x10000A748, symSize: 0x8C }
  - { offset: 0x27E58, size: 0x8, addend: 0x0, symName: __ZNKSt16initializer_listINSt3__112basic_stringIcNS0_11char_traitsIcEENS0_9allocatorIcEEEEE5beginB8ue170006Ev, symObjAddr: 0x8984, symBinAddr: 0x10000A7D4, symSize: 0x18 }
  - { offset: 0x27E7E, size: 0x8, addend: 0x0, symName: __ZNKSt16initializer_listINSt3__112basic_stringIcNS0_11char_traitsIcEENS0_9allocatorIcEEEEE3endB8ue170006Ev, symObjAddr: 0x899C, symBinAddr: 0x10000A7EC, symSize: 0x28 }
  - { offset: 0x27EA4, size: 0x8, addend: 0x0, symName: __ZNSt3__128__exception_guard_exceptionsINS_6vectorINS_12basic_stringIcNS_11char_traitsIcEENS_9allocatorIcEEEENS5_IS7_EEE16__destroy_vectorEE10__completeB8ue170006Ev, symObjAddr: 0x89C4, symBinAddr: 0x10000A814, symSize: 0x1C }
  - { offset: 0x27ECA, size: 0x8, addend: 0x0, symName: __ZNSt3__128__exception_guard_exceptionsINS_6vectorINS_12basic_stringIcNS_11char_traitsIcEENS_9allocatorIcEEEENS5_IS7_EEE16__destroy_vectorEED1B8ue170006Ev, symObjAddr: 0x89E0, symBinAddr: 0x10000A830, symSize: 0x2C }
  - { offset: 0x27EF4, size: 0x8, addend: 0x0, symName: __ZNSt3__117__compressed_pairIPNS_12basic_stringIcNS_11char_traitsIcEENS_9allocatorIcEEEENS4_IS6_EEEC2B8ue170006IDnNS_18__default_init_tagEEEOT_OT0_, symObjAddr: 0x8A0C, symBinAddr: 0x10000A85C, symSize: 0x40 }
  - { offset: 0x27F4C, size: 0x8, addend: 0x0, symName: __ZNSt3__122__compressed_pair_elemIPNS_12basic_stringIcNS_11char_traitsIcEENS_9allocatorIcEEEELi0ELb0EEC2B8ue170006IDnvEEOT_, symObjAddr: 0x8A4C, symBinAddr: 0x10000A89C, symSize: 0x1C }
  - { offset: 0x27F8E, size: 0x8, addend: 0x0, symName: __ZNSt3__122__compressed_pair_elemINS_9allocatorINS_12basic_stringIcNS_11char_traitsIcEENS1_IcEEEEEELi1ELb1EEC2B8ue170006ENS_18__default_init_tagE, symObjAddr: 0x8A68, symBinAddr: 0x10000A8B8, symSize: 0x2C }
  - { offset: 0x27FC3, size: 0x8, addend: 0x0, symName: __ZNSt3__19allocatorINS_12basic_stringIcNS_11char_traitsIcEENS0_IcEEEEEC2B8ue170006Ev, symObjAddr: 0x8A94, symBinAddr: 0x10000A8E4, symSize: 0x2C }
  - { offset: 0x27FED, size: 0x8, addend: 0x0, symName: __ZNSt3__116__non_trivial_ifILb1ENS_9allocatorINS_12basic_stringIcNS_11char_traitsIcEENS1_IcEEEEEEEC2B8ue170006Ev, symObjAddr: 0x8AC0, symBinAddr: 0x10000A910, symSize: 0x14 }
  - { offset: 0x28017, size: 0x8, addend: 0x0, symName: __ZNSt3__128__exception_guard_exceptionsINS_6vectorINS_12basic_stringIcNS_11char_traitsIcEENS_9allocatorIcEEEENS5_IS7_EEE16__destroy_vectorEEC1B8ue170006ESA_, symObjAddr: 0x8AD4, symBinAddr: 0x10000A924, symSize: 0x34 }
  - { offset: 0x2804F, size: 0x8, addend: 0x0, symName: __ZNSt3__128__exception_guard_exceptionsINS_6vectorINS_12basic_stringIcNS_11char_traitsIcEENS_9allocatorIcEEEENS5_IS7_EEE16__destroy_vectorEEC2B8ue170006ESA_, symObjAddr: 0x8B08, symBinAddr: 0x10000A958, symSize: 0x24 }
  - { offset: 0x28087, size: 0x8, addend: 0x0, symName: __ZNSt3__16vectorINS_12basic_stringIcNS_11char_traitsIcEENS_9allocatorIcEEEENS4_IS6_EEE16__destroy_vectorC2B8ue170006ERS8_, symObjAddr: 0x8B2C, symBinAddr: 0x10000A97C, symSize: 0x20 }
  - { offset: 0x280C0, size: 0x8, addend: 0x0, symName: __ZNKSt3__16vectorINS_12basic_stringIcNS_11char_traitsIcEENS_9allocatorIcEEEENS4_IS6_EEE8max_sizeEv, symObjAddr: 0x8B4C, symBinAddr: 0x10000A99C, symSize: 0x60 }
  - { offset: 0x280E8, size: 0x8, addend: 0x0, symName: __ZNKSt3__16vectorINS_12basic_stringIcNS_11char_traitsIcEENS_9allocatorIcEEEENS4_IS6_EEE20__throw_length_errorB8ue170006Ev, symObjAddr: 0x8BAC, symBinAddr: 0x10000A9FC, symSize: 0x1C }
  - { offset: 0x2810E, size: 0x8, addend: 0x0, symName: __ZNSt3__16vectorINS_12basic_stringIcNS_11char_traitsIcEENS_9allocatorIcEEEENS4_IS6_EEE7__allocB8ue170006Ev, symObjAddr: 0x8C08, symBinAddr: 0x10000AA58, symSize: 0x28 }
  - { offset: 0x28134, size: 0x8, addend: 0x0, symName: __ZNSt3__16vectorINS_12basic_stringIcNS_11char_traitsIcEENS_9allocatorIcEEEENS4_IS6_EEE9__end_capB8ue170006Ev, symObjAddr: 0x8C30, symBinAddr: 0x10000AA80, symSize: 0x28 }
  - { offset: 0x2815A, size: 0x8, addend: 0x0, symName: __ZNKSt3__16vectorINS_12basic_stringIcNS_11char_traitsIcEENS_9allocatorIcEEEENS4_IS6_EEE14__annotate_newB8ue170006Em, symObjAddr: 0x8C58, symBinAddr: 0x10000AAA8, symSize: 0xC8 }
  - { offset: 0x2819A, size: 0x8, addend: 0x0, symName: __ZNSt3__116allocator_traitsINS_9allocatorINS_12basic_stringIcNS_11char_traitsIcEENS1_IcEEEEEEE8max_sizeB8ue170006IS7_vEEmRKS7_, symObjAddr: 0x8D20, symBinAddr: 0x10000AB70, symSize: 0x24 }
  - { offset: 0x281C8, size: 0x8, addend: 0x0, symName: __ZNKSt3__16vectorINS_12basic_stringIcNS_11char_traitsIcEENS_9allocatorIcEEEENS4_IS6_EEE7__allocB8ue170006Ev, symObjAddr: 0x8D44, symBinAddr: 0x10000AB94, symSize: 0x28 }
  - { offset: 0x281EE, size: 0x8, addend: 0x0, symName: __ZNKSt3__19allocatorINS_12basic_stringIcNS_11char_traitsIcEENS0_IcEEEEE8max_sizeB8ue170006Ev, symObjAddr: 0x8D6C, symBinAddr: 0x10000ABBC, symSize: 0x18 }
  - { offset: 0x28214, size: 0x8, addend: 0x0, symName: __ZNKSt3__117__compressed_pairIPNS_12basic_stringIcNS_11char_traitsIcEENS_9allocatorIcEEEENS4_IS6_EEE6secondB8ue170006Ev, symObjAddr: 0x8D84, symBinAddr: 0x10000ABD4, symSize: 0x24 }
  - { offset: 0x2823A, size: 0x8, addend: 0x0, symName: __ZNKSt3__122__compressed_pair_elemINS_9allocatorINS_12basic_stringIcNS_11char_traitsIcEENS1_IcEEEEEELi1ELb1EE5__getB8ue170006Ev, symObjAddr: 0x8DA8, symBinAddr: 0x10000ABF8, symSize: 0x14 }
  - { offset: 0x28260, size: 0x8, addend: 0x0, symName: __ZNSt3__19allocatorINS_12basic_stringIcNS_11char_traitsIcEENS0_IcEEEEE8allocateB8ue170006Em, symObjAddr: 0x8DBC, symBinAddr: 0x10000AC0C, symSize: 0x5C }
  - { offset: 0x28294, size: 0x8, addend: 0x0, symName: __ZNSt3__117__compressed_pairIPNS_12basic_stringIcNS_11char_traitsIcEENS_9allocatorIcEEEENS4_IS6_EEE6secondB8ue170006Ev, symObjAddr: 0x8E18, symBinAddr: 0x10000AC68, symSize: 0x24 }
  - { offset: 0x282BA, size: 0x8, addend: 0x0, symName: __ZNSt3__122__compressed_pair_elemINS_9allocatorINS_12basic_stringIcNS_11char_traitsIcEENS1_IcEEEEEELi1ELb1EE5__getB8ue170006Ev, symObjAddr: 0x8E3C, symBinAddr: 0x10000AC8C, symSize: 0x14 }
  - { offset: 0x282E0, size: 0x8, addend: 0x0, symName: __ZNSt3__117__compressed_pairIPNS_12basic_stringIcNS_11char_traitsIcEENS_9allocatorIcEEEENS4_IS6_EEE5firstB8ue170006Ev, symObjAddr: 0x8E50, symBinAddr: 0x10000ACA0, symSize: 0x24 }
  - { offset: 0x28306, size: 0x8, addend: 0x0, symName: __ZNSt3__122__compressed_pair_elemIPNS_12basic_stringIcNS_11char_traitsIcEENS_9allocatorIcEEEELi0ELb0EE5__getB8ue170006Ev, symObjAddr: 0x8E74, symBinAddr: 0x10000ACC4, symSize: 0x14 }
  - { offset: 0x2832C, size: 0x8, addend: 0x0, symName: __ZNKSt3__16vectorINS_12basic_stringIcNS_11char_traitsIcEENS_9allocatorIcEEEENS4_IS6_EEE31__annotate_contiguous_containerB8ue170006EPKvSA_SA_SA_, symObjAddr: 0x8E88, symBinAddr: 0x10000ACD8, symSize: 0x20 }
  - { offset: 0x2837E, size: 0x8, addend: 0x0, symName: __ZNKSt3__16vectorINS_12basic_stringIcNS_11char_traitsIcEENS_9allocatorIcEEEENS4_IS6_EEE4dataB8ue170006Ev, symObjAddr: 0x8EA8, symBinAddr: 0x10000ACF8, symSize: 0x28 }
  - { offset: 0x283A4, size: 0x8, addend: 0x0, symName: __ZNKSt3__16vectorINS_12basic_stringIcNS_11char_traitsIcEENS_9allocatorIcEEEENS4_IS6_EEE8capacityB8ue170006Ev, symObjAddr: 0x8ED0, symBinAddr: 0x10000AD20, symSize: 0x40 }
  - { offset: 0x283CA, size: 0x8, addend: 0x0, symName: __ZNKSt3__16vectorINS_12basic_stringIcNS_11char_traitsIcEENS_9allocatorIcEEEENS4_IS6_EEE9__end_capB8ue170006Ev, symObjAddr: 0x8F24, symBinAddr: 0x10000AD74, symSize: 0x28 }
  - { offset: 0x283F0, size: 0x8, addend: 0x0, symName: __ZNKSt3__117__compressed_pairIPNS_12basic_stringIcNS_11char_traitsIcEENS_9allocatorIcEEEENS4_IS6_EEE5firstB8ue170006Ev, symObjAddr: 0x8F4C, symBinAddr: 0x10000AD9C, symSize: 0x24 }
  - { offset: 0x28416, size: 0x8, addend: 0x0, symName: __ZNKSt3__122__compressed_pair_elemIPNS_12basic_stringIcNS_11char_traitsIcEENS_9allocatorIcEEEELi0ELb0EE5__getB8ue170006Ev, symObjAddr: 0x8F70, symBinAddr: 0x10000ADC0, symSize: 0x14 }
  - { offset: 0x28458, size: 0x8, addend: 0x0, symName: __ZNSt3__16vectorINS_12basic_stringIcNS_11char_traitsIcEENS_9allocatorIcEEEENS4_IS6_EEE21_ConstructTransactionC1B8ue170006ERS8_m, symObjAddr: 0x8F84, symBinAddr: 0x10000ADD4, symSize: 0x3C }
  - { offset: 0x284A0, size: 0x8, addend: 0x0, symName: __ZNSt3__16vectorINS_12basic_stringIcNS_11char_traitsIcEENS_9allocatorIcEEEENS4_IS6_EEE21_ConstructTransactionD1B8ue170006Ev, symObjAddr: 0x9040, symBinAddr: 0x10000AE90, symSize: 0x2C }
  - { offset: 0x284CA, size: 0x8, addend: 0x0, symName: __ZNSt3__16vectorINS_12basic_stringIcNS_11char_traitsIcEENS_9allocatorIcEEEENS4_IS6_EEE21_ConstructTransactionC2B8ue170006ERS8_m, symObjAddr: 0x906C, symBinAddr: 0x10000AEBC, symSize: 0x4C }
  - { offset: 0x28535, size: 0x8, addend: 0x0, symName: __ZNSt3__14pairIPKNS_12basic_stringIcNS_11char_traitsIcEENS_9allocatorIcEEEES8_EC1B8ue170006IS8_S8_LPv0EEEOT_OT0_, symObjAddr: 0x92C8, symBinAddr: 0x10000B118, symSize: 0x3C }
  - { offset: 0x28593, size: 0x8, addend: 0x0, symName: __ZNSt3__14pairIPKNS_12basic_stringIcNS_11char_traitsIcEENS_9allocatorIcEEEES8_EC2B8ue170006IS8_S8_LPv0EEEOT_OT0_, symObjAddr: 0x9304, symBinAddr: 0x10000B154, symSize: 0x34 }
  - { offset: 0x285F1, size: 0x8, addend: 0x0, symName: __ZNSt3__118__unwrap_iter_implIPKNS_12basic_stringIcNS_11char_traitsIcEENS_9allocatorIcEEEELb1EE8__unwrapB8ue170006ES8_, symObjAddr: 0x9338, symBinAddr: 0x10000B188, symSize: 0x24 }
  - { offset: 0x28614, size: 0x8, addend: 0x0, symName: __ZNSt3__129_AllocatorDestroyRangeReverseINS_9allocatorINS_12basic_stringIcNS_11char_traitsIcEENS1_IcEEEEEEPS6_EC1B8ue170006ERS7_RS8_SB_, symObjAddr: 0x93BC, symBinAddr: 0x10000B20C, symSize: 0x44 }
  - { offset: 0x2866B, size: 0x8, addend: 0x0, symName: __ZNSt3__116allocator_traitsINS_9allocatorINS_12basic_stringIcNS_11char_traitsIcEENS1_IcEEEEEEE9constructB8ue170006IS6_JRKS6_EvEEvRS7_PT_DpOT0_, symObjAddr: 0x9400, symBinAddr: 0x10000B250, symSize: 0x34 }
  - { offset: 0x286C2, size: 0x8, addend: 0x0, symName: __ZNSt3__128__exception_guard_exceptionsINS_29_AllocatorDestroyRangeReverseINS_9allocatorINS_12basic_stringIcNS_11char_traitsIcEENS2_IcEEEEEEPS7_EEE10__completeB8ue170006Ev, symObjAddr: 0x9434, symBinAddr: 0x10000B284, symSize: 0x1C }
  - { offset: 0x286E8, size: 0x8, addend: 0x0, symName: __ZNSt3__128__exception_guard_exceptionsINS_29_AllocatorDestroyRangeReverseINS_9allocatorINS_12basic_stringIcNS_11char_traitsIcEENS2_IcEEEEEEPS7_EEED1B8ue170006Ev, symObjAddr: 0x9450, symBinAddr: 0x10000B2A0, symSize: 0x2C }
  - { offset: 0x28712, size: 0x8, addend: 0x0, symName: __ZNSt3__128__exception_guard_exceptionsINS_29_AllocatorDestroyRangeReverseINS_9allocatorINS_12basic_stringIcNS_11char_traitsIcEENS2_IcEEEEEEPS7_EEEC1B8ue170006ESA_, symObjAddr: 0x947C, symBinAddr: 0x10000B2CC, symSize: 0x34 }
  - { offset: 0x2874B, size: 0x8, addend: 0x0, symName: __ZNSt3__128__exception_guard_exceptionsINS_29_AllocatorDestroyRangeReverseINS_9allocatorINS_12basic_stringIcNS_11char_traitsIcEENS2_IcEEEEEEPS7_EEEC2B8ue170006ESA_, symObjAddr: 0x94B0, symBinAddr: 0x10000B300, symSize: 0x30 }
  - { offset: 0x28784, size: 0x8, addend: 0x0, symName: __ZNSt3__129_AllocatorDestroyRangeReverseINS_9allocatorINS_12basic_stringIcNS_11char_traitsIcEENS1_IcEEEEEEPS6_EC2B8ue170006ERS7_RS8_SB_, symObjAddr: 0x94E0, symBinAddr: 0x10000B330, symSize: 0x38 }
  - { offset: 0x287DB, size: 0x8, addend: 0x0, symName: __ZNSt3__19allocatorINS_12basic_stringIcNS_11char_traitsIcEENS0_IcEEEEE9constructB8ue170006IS5_JRKS5_EEEvPT_DpOT0_, symObjAddr: 0x9518, symBinAddr: 0x10000B368, symSize: 0x30 }
  - { offset: 0x28831, size: 0x8, addend: 0x0, symName: __ZNSt3__128__exception_guard_exceptionsINS_29_AllocatorDestroyRangeReverseINS_9allocatorINS_12basic_stringIcNS_11char_traitsIcEENS2_IcEEEEEEPS7_EEED2B8ue170006Ev, symObjAddr: 0x9548, symBinAddr: 0x10000B398, symSize: 0x50 }
  - { offset: 0x2885B, size: 0x8, addend: 0x0, symName: __ZNKSt3__129_AllocatorDestroyRangeReverseINS_9allocatorINS_12basic_stringIcNS_11char_traitsIcEENS1_IcEEEEEEPS6_EclB8ue170006Ev, symObjAddr: 0x9598, symBinAddr: 0x10000B3E8, symSize: 0x68 }
  - { offset: 0x28881, size: 0x8, addend: 0x0, symName: __ZNSt3__116reverse_iteratorIPNS_12basic_stringIcNS_11char_traitsIcEENS_9allocatorIcEEEEEC1B8ue170006ES7_, symObjAddr: 0x9670, symBinAddr: 0x10000B4C0, symSize: 0x34 }
  - { offset: 0x288B9, size: 0x8, addend: 0x0, symName: __ZNSt3__116allocator_traitsINS_9allocatorINS_12basic_stringIcNS_11char_traitsIcEENS1_IcEEEEEEE7destroyB8ue170006IS6_vEEvRS7_PT_, symObjAddr: 0x96EC, symBinAddr: 0x10000B53C, symSize: 0x2C }
  - { offset: 0x288F6, size: 0x8, addend: 0x0, symName: __ZNSt3__116reverse_iteratorIPNS_12basic_stringIcNS_11char_traitsIcEENS_9allocatorIcEEEEEppB8ue170006Ev, symObjAddr: 0x973C, symBinAddr: 0x10000B58C, symSize: 0x20 }
  - { offset: 0x2891C, size: 0x8, addend: 0x0, symName: __ZNKSt3__116reverse_iteratorIPNS_12basic_stringIcNS_11char_traitsIcEENS_9allocatorIcEEEEE4baseB8ue170006Ev, symObjAddr: 0x975C, symBinAddr: 0x10000B5AC, symSize: 0x18 }
  - { offset: 0x28942, size: 0x8, addend: 0x0, symName: __ZNSt3__19allocatorINS_12basic_stringIcNS_11char_traitsIcEENS0_IcEEEEE7destroyB8ue170006EPS5_, symObjAddr: 0x9774, symBinAddr: 0x10000B5C4, symSize: 0x28 }
  - { offset: 0x2897C, size: 0x8, addend: 0x0, symName: __ZNSt3__119__to_address_helperINS_16reverse_iteratorIPNS_12basic_stringIcNS_11char_traitsIcEENS_9allocatorIcEEEEEEvE6__callB8ue170006ERKS9_, symObjAddr: 0x979C, symBinAddr: 0x10000B5EC, symSize: 0x38 }
  - { offset: 0x2899F, size: 0x8, addend: 0x0, symName: __ZNKSt3__116reverse_iteratorIPNS_12basic_stringIcNS_11char_traitsIcEENS_9allocatorIcEEEEEptB8ue170006Ev, symObjAddr: 0x97D4, symBinAddr: 0x10000B624, symSize: 0x24 }
  - { offset: 0x289C5, size: 0x8, addend: 0x0, symName: __ZNKSt3__116reverse_iteratorIPNS_12basic_stringIcNS_11char_traitsIcEENS_9allocatorIcEEEEEdeB8ue170006Ev, symObjAddr: 0x97F8, symBinAddr: 0x10000B648, symSize: 0x28 }
  - { offset: 0x289F9, size: 0x8, addend: 0x0, symName: __ZNSt3__116reverse_iteratorIPNS_12basic_stringIcNS_11char_traitsIcEENS_9allocatorIcEEEEEC2B8ue170006ES7_, symObjAddr: 0x9820, symBinAddr: 0x10000B670, symSize: 0x28 }
  - { offset: 0x28A31, size: 0x8, addend: 0x0, symName: __ZNSt3__118__unwrap_iter_implIPNS_12basic_stringIcNS_11char_traitsIcEENS_9allocatorIcEEEELb1EE8__unwrapB8ue170006ES7_, symObjAddr: 0x9848, symBinAddr: 0x10000B698, symSize: 0x24 }
  - { offset: 0x28A54, size: 0x8, addend: 0x0, symName: __ZNSt3__118__unwrap_iter_implIPNS_12basic_stringIcNS_11char_traitsIcEENS_9allocatorIcEEEELb1EE8__rewrapB8ue170006ES7_S7_, symObjAddr: 0x986C, symBinAddr: 0x10000B6BC, symSize: 0x58 }
  - { offset: 0x28A85, size: 0x8, addend: 0x0, symName: __ZNSt3__16vectorINS_12basic_stringIcNS_11char_traitsIcEENS_9allocatorIcEEEENS4_IS6_EEE21_ConstructTransactionD2B8ue170006Ev, symObjAddr: 0x98C4, symBinAddr: 0x10000B714, symSize: 0x20 }
  - { offset: 0x28AAF, size: 0x8, addend: 0x0, symName: __ZNSt3__128__exception_guard_exceptionsINS_6vectorINS_12basic_stringIcNS_11char_traitsIcEENS_9allocatorIcEEEENS5_IS7_EEE16__destroy_vectorEED2B8ue170006Ev, symObjAddr: 0x98E4, symBinAddr: 0x10000B734, symSize: 0x50 }
  - { offset: 0x28AD9, size: 0x8, addend: 0x0, symName: __ZNSt3__16vectorINS_12basic_stringIcNS_11char_traitsIcEENS_9allocatorIcEEEENS4_IS6_EEE16__destroy_vectorclB8ue170006Ev, symObjAddr: 0x9934, symBinAddr: 0x10000B784, symSize: 0x90 }
  - { offset: 0x28AFF, size: 0x8, addend: 0x0, symName: __ZNSt3__16vectorINS_12basic_stringIcNS_11char_traitsIcEENS_9allocatorIcEEEENS4_IS6_EEE7__clearB8ue170006Ev, symObjAddr: 0x99C4, symBinAddr: 0x10000B814, symSize: 0x28 }
  - { offset: 0x28B25, size: 0x8, addend: 0x0, symName: __ZNKSt3__16vectorINS_12basic_stringIcNS_11char_traitsIcEENS_9allocatorIcEEEENS4_IS6_EEE17__annotate_deleteB8ue170006Ev, symObjAddr: 0x99EC, symBinAddr: 0x10000B83C, symSize: 0xD4 }
  - { offset: 0x28B4B, size: 0x8, addend: 0x0, symName: __ZNSt3__116allocator_traitsINS_9allocatorINS_12basic_stringIcNS_11char_traitsIcEENS1_IcEEEEEEE10deallocateB8ue170006ERS7_PS6_m, symObjAddr: 0x9AC0, symBinAddr: 0x10000B910, symSize: 0x34 }
  - { offset: 0x28B8D, size: 0x8, addend: 0x0, symName: __ZNSt3__16vectorINS_12basic_stringIcNS_11char_traitsIcEENS_9allocatorIcEEEENS4_IS6_EEE22__base_destruct_at_endB8ue170006EPS6_, symObjAddr: 0x9AF4, symBinAddr: 0x10000B944, symSize: 0x8C }
  - { offset: 0x28BD1, size: 0x8, addend: 0x0, symName: __ZNKSt3__16vectorINS_12basic_stringIcNS_11char_traitsIcEENS_9allocatorIcEEEENS4_IS6_EEE4sizeB8ue170006Ev, symObjAddr: 0x9B80, symBinAddr: 0x10000B9D0, symSize: 0x28 }
  - { offset: 0x28BF7, size: 0x8, addend: 0x0, symName: __ZNSt3__19allocatorINS_12basic_stringIcNS_11char_traitsIcEENS0_IcEEEEE10deallocateB8ue170006EPS5_m, symObjAddr: 0x9BA8, symBinAddr: 0x10000B9F8, symSize: 0x44 }
  - { offset: 0x28C39, size: 0x8, addend: 0x0, symName: __ZNSt3__16vectorINS_12basic_stringIcNS_11char_traitsIcEENS_9allocatorIcEEEENS4_IS6_EEED2B8ue170006Ev, symObjAddr: 0x9BEC, symBinAddr: 0x10000BA3C, symSize: 0x40 }
  - { offset: 0x28C63, size: 0x8, addend: 0x0, symName: __ZNSt3__16vectorIiNS_9allocatorIiEEE11__make_iterB8ue170006EPi, symObjAddr: 0x9C2C, symBinAddr: 0x10000BA7C, symSize: 0x30 }
  - { offset: 0x28C98, size: 0x8, addend: 0x0, symName: __ZNSt3__111__wrap_iterIPiEC1B8ue170006ES1_, symObjAddr: 0x9C5C, symBinAddr: 0x10000BAAC, symSize: 0x34 }
  - { offset: 0x28CD0, size: 0x8, addend: 0x0, symName: __ZNSt3__111__wrap_iterIPiEC2B8ue170006ES1_, symObjAddr: 0x9C90, symBinAddr: 0x10000BAE0, symSize: 0x20 }
  - { offset: 0x28D08, size: 0x8, addend: 0x0, symName: __ZNSt3__16vectorI16DistributionTypeNS_9allocatorIS1_EEE11__make_iterB8ue170006EPS1_, symObjAddr: 0x9CB0, symBinAddr: 0x10000BB00, symSize: 0x30 }
  - { offset: 0x28D3D, size: 0x8, addend: 0x0, symName: __ZNSt3__111__wrap_iterIP16DistributionTypeEC1B8ue170006ES2_, symObjAddr: 0x9CE0, symBinAddr: 0x10000BB30, symSize: 0x34 }
  - { offset: 0x28D75, size: 0x8, addend: 0x0, symName: __ZNSt3__111__wrap_iterIP16DistributionTypeEC2B8ue170006ES2_, symObjAddr: 0x9D14, symBinAddr: 0x10000BB64, symSize: 0x20 }
  - { offset: 0x28DAD, size: 0x8, addend: 0x0, symName: __ZNSt3__16vectorINS_8functionIFiiiEEENS_9allocatorIS3_EEE11__make_iterB8ue170006EPS3_, symObjAddr: 0x9D34, symBinAddr: 0x10000BB84, symSize: 0x30 }
  - { offset: 0x28DE2, size: 0x8, addend: 0x0, symName: __ZNSt3__111__wrap_iterIPNS_8functionIFiiiEEEEC1B8ue170006ES4_, symObjAddr: 0x9D64, symBinAddr: 0x10000BBB4, symSize: 0x34 }
  - { offset: 0x28E1A, size: 0x8, addend: 0x0, symName: __ZNSt3__111__wrap_iterIPNS_8functionIFiiiEEEEC2B8ue170006ES4_, symObjAddr: 0x9D98, symBinAddr: 0x10000BBE8, symSize: 0x20 }
  - { offset: 0x28E52, size: 0x8, addend: 0x0, symName: __ZNSt3__18functionIFiiiEEC2ERKS2_, symObjAddr: 0x9DB8, symBinAddr: 0x10000BC08, symSize: 0x34 }
  - { offset: 0x28E8D, size: 0x8, addend: 0x0, symName: __ZNSt3__110__function12__value_funcIFiiiEEC1B8ue170006ERKS3_, symObjAddr: 0x9DEC, symBinAddr: 0x10000BC3C, symSize: 0x34 }
  - { offset: 0x28EC6, size: 0x8, addend: 0x0, symName: __ZNSt3__110__function12__value_funcIFiiiEEC2B8ue170006ERKS3_, symObjAddr: 0x9E20, symBinAddr: 0x10000BC70, symSize: 0xC0 }
  - { offset: 0x28F03, size: 0x8, addend: 0x0, symName: __ZN6detail35get_hash_name_from_probing_strategyI13LinearProbingEENSt3__112basic_stringIcNS2_11char_traitsIcEENS2_9allocatorIcEEEERKT_, symObjAddr: 0x9EE0, symBinAddr: 0x10000BD30, symSize: 0x3C }
  - { offset: 0x28F3A, size: 0x8, addend: 0x0, symName: __ZNSt3__112basic_stringIcNS_11char_traitsIcEENS_9allocatorIcEEEC1B8ue170006Ev, symObjAddr: 0x9F1C, symBinAddr: 0x10000BD6C, symSize: 0x2C }
  - { offset: 0x28F64, size: 0x8, addend: 0x0, symName: __ZNSt3__112basic_stringIcNS_11char_traitsIcEENS_9allocatorIcEEEaSB8ue170006EPKc, symObjAddr: 0x9F48, symBinAddr: 0x10000BD98, symSize: 0x2C }
  - { offset: 0x28F9F, size: 0x8, addend: 0x0, symName: __ZN13LinearProbingC1ERKS_, symObjAddr: 0x9FC0, symBinAddr: 0x10000BE10, symSize: 0x34 }
  - { offset: 0x29072, size: 0x8, addend: 0x0, symName: __ZN23OpenAddressingHashTableI13LinearProbingEC1EiS0_, symObjAddr: 0x9FF4, symBinAddr: 0x10000BE44, symSize: 0x3C }
  - { offset: 0x290B9, size: 0x8, addend: 0x0, symName: __ZN23OpenAddressingHashTableI13LinearProbingE13getLoadFactorEv, symObjAddr: 0xA258, symBinAddr: 0x10000C0A8, symSize: 0x44 }
  - { offset: 0x290DF, size: 0x8, addend: 0x0, symName: __ZN23OpenAddressingHashTableI13LinearProbingE6insertEi, symObjAddr: 0xA29C, symBinAddr: 0x10000C0EC, symSize: 0x198 }
  - { offset: 0x2914B, size: 0x8, addend: 0x0, symName: __ZNSt3__16vectorIiNS_9allocatorIiEEEixB8ue170006Em, symObjAddr: 0xA434, symBinAddr: 0x10000C284, symSize: 0x24 }
  - { offset: 0x29182, size: 0x8, addend: 0x0, symName: __ZN23OpenAddressingHashTableI13LinearProbingED1Ev, symObjAddr: 0xA458, symBinAddr: 0x10000C2A8, symSize: 0x2C }
  - { offset: 0x291AE, size: 0x8, addend: 0x0, symName: __ZNSt3__112basic_stringIcNS_11char_traitsIcEENS_9allocatorIcEEEC2B8ue170006Ev, symObjAddr: 0xA484, symBinAddr: 0x10000C2D4, symSize: 0x44 }
  - { offset: 0x291D8, size: 0x8, addend: 0x0, symName: __ZNKSt3__112basic_stringIcNS_11char_traitsIcEENS_9allocatorIcEEE4dataB8ue170006Ev, symObjAddr: 0xA4C8, symBinAddr: 0x10000C318, symSize: 0x28 }
  - { offset: 0x291FE, size: 0x8, addend: 0x0, symName: __ZNKSt3__112basic_stringIcNS_11char_traitsIcEENS_9allocatorIcEEE4sizeB8ue170006Ev, symObjAddr: 0xA4F0, symBinAddr: 0x10000C340, symSize: 0x54 }
  - { offset: 0x29224, size: 0x8, addend: 0x0, symName: __ZNKSt3__112basic_stringIcNS_11char_traitsIcEENS_9allocatorIcEEE13__get_pointerB8ue170006Ev, symObjAddr: 0xA558, symBinAddr: 0x10000C3A8, symSize: 0x54 }
  - { offset: 0x2924A, size: 0x8, addend: 0x0, symName: __ZNKSt3__112basic_stringIcNS_11char_traitsIcEENS_9allocatorIcEEE18__get_long_pointerB8ue170006Ev, symObjAddr: 0xA5AC, symBinAddr: 0x10000C3FC, symSize: 0x28 }
  - { offset: 0x29270, size: 0x8, addend: 0x0, symName: __ZNKSt3__112basic_stringIcNS_11char_traitsIcEENS_9allocatorIcEEE19__get_short_pointerB8ue170006Ev, symObjAddr: 0xA5D4, symBinAddr: 0x10000C424, symSize: 0x28 }
  - { offset: 0x29296, size: 0x8, addend: 0x0, symName: __ZNSt3__114pointer_traitsIPKcE10pointer_toB8ue170006ERS1_, symObjAddr: 0xA5FC, symBinAddr: 0x10000C44C, symSize: 0x14 }
  - { offset: 0x292B9, size: 0x8, addend: 0x0, symName: __ZNKSt3__112basic_stringIcNS_11char_traitsIcEENS_9allocatorIcEEE15__get_long_sizeB8ue170006Ev, symObjAddr: 0xA610, symBinAddr: 0x10000C460, symSize: 0x28 }
  - { offset: 0x292DF, size: 0x8, addend: 0x0, symName: __ZNKSt3__112basic_stringIcNS_11char_traitsIcEENS_9allocatorIcEEE16__get_short_sizeB8ue170006Ev, symObjAddr: 0xA638, symBinAddr: 0x10000C488, symSize: 0x34 }
  - { offset: 0x29305, size: 0x8, addend: 0x0, symName: __ZN13LinearProbingC2ERKS_, symObjAddr: 0xA66C, symBinAddr: 0x10000C4BC, symSize: 0xA4 }
  - { offset: 0x2933A, size: 0x8, addend: 0x0, symName: __ZN23OpenAddressingHashTableI13LinearProbingEC2EiS0_, symObjAddr: 0xA710, symBinAddr: 0x10000C560, symSize: 0x118 }
  - { offset: 0x29381, size: 0x8, addend: 0x0, symName: __ZNSt3__16vectorINS_8optionalIiEENS_9allocatorIS2_EEEC1B8ue170006Ev, symObjAddr: 0xA828, symBinAddr: 0x10000C678, symSize: 0x2C }
  - { offset: 0x293B1, size: 0x8, addend: 0x0, symName: __ZN13LinearProbingC1EOS_, symObjAddr: 0xA854, symBinAddr: 0x10000C6A4, symSize: 0x34 }
  - { offset: 0x293E6, size: 0x8, addend: 0x0, symName: __ZNSt16invalid_argumentC1B8ue170006EPKc, symObjAddr: 0xA888, symBinAddr: 0x10000C6D8, symSize: 0x34 }
  - { offset: 0x2941E, size: 0x8, addend: 0x0, symName: __ZNSt3__16vectorINS_8optionalIiEENS_9allocatorIS2_EEE6resizeEm, symObjAddr: 0xA8BC, symBinAddr: 0x10000C70C, symSize: 0x94 }
  - { offset: 0x29464, size: 0x8, addend: 0x0, symName: __ZNSt3__16vectorINS_8optionalIiEENS_9allocatorIS2_EEED1B8ue170006Ev, symObjAddr: 0xA950, symBinAddr: 0x10000C7A0, symSize: 0x2C }
  - { offset: 0x2948E, size: 0x8, addend: 0x0, symName: __ZNSt3__16vectorINS_8optionalIiEENS_9allocatorIS2_EEEC2B8ue170006Ev, symObjAddr: 0xA97C, symBinAddr: 0x10000C7CC, symSize: 0x4C }
  - { offset: 0x294B8, size: 0x8, addend: 0x0, symName: __ZNSt3__117__compressed_pairIPNS_8optionalIiEENS_9allocatorIS2_EEEC1B8ue170006IDnNS_18__default_init_tagEEEOT_OT0_, symObjAddr: 0xA9C8, symBinAddr: 0x10000C818, symSize: 0x3C }
  - { offset: 0x29510, size: 0x8, addend: 0x0, symName: __ZNSt3__117__compressed_pairIPNS_8optionalIiEENS_9allocatorIS2_EEEC2B8ue170006IDnNS_18__default_init_tagEEEOT_OT0_, symObjAddr: 0xAA04, symBinAddr: 0x10000C854, symSize: 0x40 }
  - { offset: 0x29568, size: 0x8, addend: 0x0, symName: __ZNSt3__122__compressed_pair_elemIPNS_8optionalIiEELi0ELb0EEC2B8ue170006IDnvEEOT_, symObjAddr: 0xAA44, symBinAddr: 0x10000C894, symSize: 0x1C }
  - { offset: 0x295AA, size: 0x8, addend: 0x0, symName: __ZNSt3__122__compressed_pair_elemINS_9allocatorINS_8optionalIiEEEELi1ELb1EEC2B8ue170006ENS_18__default_init_tagE, symObjAddr: 0xAA60, symBinAddr: 0x10000C8B0, symSize: 0x2C }
  - { offset: 0x295DF, size: 0x8, addend: 0x0, symName: __ZNSt3__19allocatorINS_8optionalIiEEEC2B8ue170006Ev, symObjAddr: 0xAA8C, symBinAddr: 0x10000C8DC, symSize: 0x2C }
  - { offset: 0x29609, size: 0x8, addend: 0x0, symName: __ZNSt3__116__non_trivial_ifILb1ENS_9allocatorINS_8optionalIiEEEEEC2B8ue170006Ev, symObjAddr: 0xAAB8, symBinAddr: 0x10000C908, symSize: 0x14 }
  - { offset: 0x29633, size: 0x8, addend: 0x0, symName: __ZN13LinearProbingC2EOS_, symObjAddr: 0xAACC, symBinAddr: 0x10000C91C, symSize: 0x5C }
  - { offset: 0x29668, size: 0x8, addend: 0x0, symName: __ZNSt16invalid_argumentC2B8ue170006EPKc, symObjAddr: 0xAB28, symBinAddr: 0x10000C978, symSize: 0x44 }
  - { offset: 0x296A0, size: 0x8, addend: 0x0, symName: __ZNKSt3__16vectorINS_8optionalIiEENS_9allocatorIS2_EEE4sizeB8ue170006Ev, symObjAddr: 0xAB6C, symBinAddr: 0x10000C9BC, symSize: 0x28 }
  - { offset: 0x296C6, size: 0x8, addend: 0x0, symName: __ZNSt3__16vectorINS_8optionalIiEENS_9allocatorIS2_EEE8__appendEm, symObjAddr: 0xAB94, symBinAddr: 0x10000C9E4, symSize: 0x108 }
  - { offset: 0x29721, size: 0x8, addend: 0x0, symName: __ZNSt3__16vectorINS_8optionalIiEENS_9allocatorIS2_EEE17__destruct_at_endB8ue170006EPS2_, symObjAddr: 0xAC9C, symBinAddr: 0x10000CAEC, symSize: 0x4C }
  - { offset: 0x29765, size: 0x8, addend: 0x0, symName: __ZNSt3__16vectorINS_8optionalIiEENS_9allocatorIS2_EEE9__end_capB8ue170006Ev, symObjAddr: 0xACE8, symBinAddr: 0x10000CB38, symSize: 0x28 }
  - { offset: 0x2978B, size: 0x8, addend: 0x0, symName: __ZNSt3__16vectorINS_8optionalIiEENS_9allocatorIS2_EEE18__construct_at_endEm, symObjAddr: 0xAD10, symBinAddr: 0x10000CB60, symSize: 0xC8 }
  - { offset: 0x297FD, size: 0x8, addend: 0x0, symName: __ZNSt3__16vectorINS_8optionalIiEENS_9allocatorIS2_EEE7__allocB8ue170006Ev, symObjAddr: 0xADD8, symBinAddr: 0x10000CC28, symSize: 0x28 }
  - { offset: 0x29823, size: 0x8, addend: 0x0, symName: __ZNKSt3__16vectorINS_8optionalIiEENS_9allocatorIS2_EEE11__recommendB8ue170006Em, symObjAddr: 0xAE00, symBinAddr: 0x10000CC50, symSize: 0xB4 }
  - { offset: 0x29878, size: 0x8, addend: 0x0, symName: __ZNSt3__114__split_bufferINS_8optionalIiEERNS_9allocatorIS2_EEEC1EmmS5_, symObjAddr: 0xAEB4, symBinAddr: 0x10000CD04, symSize: 0x44 }
  - { offset: 0x298CE, size: 0x8, addend: 0x0, symName: __ZNSt3__114__split_bufferINS_8optionalIiEERNS_9allocatorIS2_EEE18__construct_at_endEm, symObjAddr: 0xAEF8, symBinAddr: 0x10000CD48, symSize: 0xB4 }
  - { offset: 0x29913, size: 0x8, addend: 0x0, symName: __ZNSt3__114__split_bufferINS_8optionalIiEERNS_9allocatorIS2_EEED1Ev, symObjAddr: 0xB0BC, symBinAddr: 0x10000CF0C, symSize: 0x2C }
  - { offset: 0x2993F, size: 0x8, addend: 0x0, symName: __ZNSt3__117__compressed_pairIPNS_8optionalIiEENS_9allocatorIS2_EEE5firstB8ue170006Ev, symObjAddr: 0xB0E8, symBinAddr: 0x10000CF38, symSize: 0x24 }
  - { offset: 0x29965, size: 0x8, addend: 0x0, symName: __ZNSt3__122__compressed_pair_elemIPNS_8optionalIiEELi0ELb0EE5__getB8ue170006Ev, symObjAddr: 0xB10C, symBinAddr: 0x10000CF5C, symSize: 0x14 }
  - { offset: 0x299A7, size: 0x8, addend: 0x0, symName: __ZNSt3__16vectorINS_8optionalIiEENS_9allocatorIS2_EEE21_ConstructTransactionC1B8ue170006ERS5_m, symObjAddr: 0xB120, symBinAddr: 0x10000CF70, symSize: 0x3C }
  - { offset: 0x299EF, size: 0x8, addend: 0x0, symName: __ZNSt3__116allocator_traitsINS_9allocatorINS_8optionalIiEEEEE9constructB8ue170006IS3_JEvEEvRS4_PT_DpOT0_, symObjAddr: 0xB15C, symBinAddr: 0x10000CFAC, symSize: 0x2C }
  - { offset: 0x29A31, size: 0x8, addend: 0x0, symName: __ZNSt3__16vectorINS_8optionalIiEENS_9allocatorIS2_EEE21_ConstructTransactionD1B8ue170006Ev, symObjAddr: 0xB19C, symBinAddr: 0x10000CFEC, symSize: 0x2C }
  - { offset: 0x29A5B, size: 0x8, addend: 0x0, symName: __ZNSt3__16vectorINS_8optionalIiEENS_9allocatorIS2_EEE21_ConstructTransactionC2B8ue170006ERS5_m, symObjAddr: 0xB1C8, symBinAddr: 0x10000D018, symSize: 0x44 }
  - { offset: 0x29AA3, size: 0x8, addend: 0x0, symName: __ZNSt3__19allocatorINS_8optionalIiEEE9constructB8ue170006IS2_JEEEvPT_DpOT0_, symObjAddr: 0xB20C, symBinAddr: 0x10000D05C, symSize: 0x28 }
  - { offset: 0x29AE5, size: 0x8, addend: 0x0, symName: __ZNSt3__18optionalIiEC1B8ue170006Ev, symObjAddr: 0xB234, symBinAddr: 0x10000D084, symSize: 0x2C }
  - { offset: 0x29B0F, size: 0x8, addend: 0x0, symName: __ZNSt3__18optionalIiEC2B8ue170006Ev, symObjAddr: 0xB260, symBinAddr: 0x10000D0B0, symSize: 0x2C }
  - { offset: 0x29B3F, size: 0x8, addend: 0x0, symName: __ZNSt3__127__optional_move_assign_baseIiLb1EEC2Ev, symObjAddr: 0xB28C, symBinAddr: 0x10000D0DC, symSize: 0x2C }
  - { offset: 0x29B72, size: 0x8, addend: 0x0, symName: __ZNSt3__127__optional_copy_assign_baseIiLb1EEC2Ev, symObjAddr: 0xB2B8, symBinAddr: 0x10000D108, symSize: 0x2C }
  - { offset: 0x29BA5, size: 0x8, addend: 0x0, symName: __ZNSt3__120__optional_move_baseIiLb1EEC2Ev, symObjAddr: 0xB2E4, symBinAddr: 0x10000D134, symSize: 0x2C }
  - { offset: 0x29BD8, size: 0x8, addend: 0x0, symName: __ZNSt3__120__optional_copy_baseIiLb1EEC2Ev, symObjAddr: 0xB310, symBinAddr: 0x10000D160, symSize: 0x2C }
  - { offset: 0x29C05, size: 0x8, addend: 0x0, symName: __ZNSt3__123__optional_storage_baseIiLb0EEC2Ev, symObjAddr: 0xB33C, symBinAddr: 0x10000D18C, symSize: 0x2C }
  - { offset: 0x29C32, size: 0x8, addend: 0x0, symName: __ZNSt3__124__optional_destruct_baseIiLb1EEC2B8ue170006Ev, symObjAddr: 0xB368, symBinAddr: 0x10000D1B8, symSize: 0x1C }
  - { offset: 0x29C5C, size: 0x8, addend: 0x0, symName: __ZNSt3__16vectorINS_8optionalIiEENS_9allocatorIS2_EEE21_ConstructTransactionD2B8ue170006Ev, symObjAddr: 0xB384, symBinAddr: 0x10000D1D4, symSize: 0x20 }
  - { offset: 0x29C86, size: 0x8, addend: 0x0, symName: __ZNSt3__117__compressed_pairIPNS_8optionalIiEENS_9allocatorIS2_EEE6secondB8ue170006Ev, symObjAddr: 0xB3A4, symBinAddr: 0x10000D1F4, symSize: 0x24 }
  - { offset: 0x29CAC, size: 0x8, addend: 0x0, symName: __ZNSt3__122__compressed_pair_elemINS_9allocatorINS_8optionalIiEEEELi1ELb1EE5__getB8ue170006Ev, symObjAddr: 0xB3C8, symBinAddr: 0x10000D218, symSize: 0x14 }
  - { offset: 0x29CD2, size: 0x8, addend: 0x0, symName: __ZNKSt3__16vectorINS_8optionalIiEENS_9allocatorIS2_EEE8max_sizeEv, symObjAddr: 0xB3DC, symBinAddr: 0x10000D22C, symSize: 0x60 }
  - { offset: 0x29CFA, size: 0x8, addend: 0x0, symName: __ZNKSt3__16vectorINS_8optionalIiEENS_9allocatorIS2_EEE20__throw_length_errorB8ue170006Ev, symObjAddr: 0xB43C, symBinAddr: 0x10000D28C, symSize: 0x1C }
  - { offset: 0x29D20, size: 0x8, addend: 0x0, symName: __ZNKSt3__16vectorINS_8optionalIiEENS_9allocatorIS2_EEE8capacityB8ue170006Ev, symObjAddr: 0xB458, symBinAddr: 0x10000D2A8, symSize: 0x40 }
  - { offset: 0x29D51, size: 0x8, addend: 0x0, symName: __ZNSt3__116allocator_traitsINS_9allocatorINS_8optionalIiEEEEE8max_sizeB8ue170006IS4_vEEmRKS4_, symObjAddr: 0xB4C4, symBinAddr: 0x10000D314, symSize: 0x24 }
  - { offset: 0x29D7F, size: 0x8, addend: 0x0, symName: __ZNKSt3__16vectorINS_8optionalIiEENS_9allocatorIS2_EEE7__allocB8ue170006Ev, symObjAddr: 0xB4E8, symBinAddr: 0x10000D338, symSize: 0x28 }
  - { offset: 0x29DA5, size: 0x8, addend: 0x0, symName: __ZNKSt3__19allocatorINS_8optionalIiEEE8max_sizeB8ue170006Ev, symObjAddr: 0xB510, symBinAddr: 0x10000D360, symSize: 0x14 }
  - { offset: 0x29DCB, size: 0x8, addend: 0x0, symName: __ZNKSt3__117__compressed_pairIPNS_8optionalIiEENS_9allocatorIS2_EEE6secondB8ue170006Ev, symObjAddr: 0xB524, symBinAddr: 0x10000D374, symSize: 0x24 }
  - { offset: 0x29DF1, size: 0x8, addend: 0x0, symName: __ZNKSt3__122__compressed_pair_elemINS_9allocatorINS_8optionalIiEEEELi1ELb1EE5__getB8ue170006Ev, symObjAddr: 0xB548, symBinAddr: 0x10000D398, symSize: 0x14 }
  - { offset: 0x29E17, size: 0x8, addend: 0x0, symName: __ZNKSt3__16vectorINS_8optionalIiEENS_9allocatorIS2_EEE9__end_capB8ue170006Ev, symObjAddr: 0xB55C, symBinAddr: 0x10000D3AC, symSize: 0x28 }
  - { offset: 0x29E3D, size: 0x8, addend: 0x0, symName: __ZNKSt3__117__compressed_pairIPNS_8optionalIiEENS_9allocatorIS2_EEE5firstB8ue170006Ev, symObjAddr: 0xB584, symBinAddr: 0x10000D3D4, symSize: 0x24 }
  - { offset: 0x29E63, size: 0x8, addend: 0x0, symName: __ZNKSt3__122__compressed_pair_elemIPNS_8optionalIiEELi0ELb0EE5__getB8ue170006Ev, symObjAddr: 0xB5A8, symBinAddr: 0x10000D3F8, symSize: 0x14 }
  - { offset: 0x29E89, size: 0x8, addend: 0x0, symName: __ZNSt3__114__split_bufferINS_8optionalIiEERNS_9allocatorIS2_EEEC2EmmS5_, symObjAddr: 0xB610, symBinAddr: 0x10000D460, symSize: 0xD4 }
  - { offset: 0x29EFC, size: 0x8, addend: 0x0, symName: __ZNSt3__117__compressed_pairIPNS_8optionalIiEERNS_9allocatorIS2_EEEC1B8ue170006IDnS6_EEOT_OT0_, symObjAddr: 0xB6E4, symBinAddr: 0x10000D534, symSize: 0x3C }
  - { offset: 0x29F54, size: 0x8, addend: 0x0, symName: __ZNSt3__114__split_bufferINS_8optionalIiEERNS_9allocatorIS2_EEE7__allocB8ue170006Ev, symObjAddr: 0xB760, symBinAddr: 0x10000D5B0, symSize: 0x28 }
  - { offset: 0x29F7A, size: 0x8, addend: 0x0, symName: __ZNSt3__114__split_bufferINS_8optionalIiEERNS_9allocatorIS2_EEE9__end_capB8ue170006Ev, symObjAddr: 0xB788, symBinAddr: 0x10000D5D8, symSize: 0x28 }
  - { offset: 0x29FA0, size: 0x8, addend: 0x0, symName: __ZNSt3__117__compressed_pairIPNS_8optionalIiEERNS_9allocatorIS2_EEEC2B8ue170006IDnS6_EEOT_OT0_, symObjAddr: 0xB7B0, symBinAddr: 0x10000D600, symSize: 0x48 }
  - { offset: 0x29FF8, size: 0x8, addend: 0x0, symName: __ZNSt3__122__compressed_pair_elemIRNS_9allocatorINS_8optionalIiEEEELi1ELb0EEC2B8ue170006IS5_vEEOT_, symObjAddr: 0xB7F8, symBinAddr: 0x10000D648, symSize: 0x20 }
  - { offset: 0x2A03A, size: 0x8, addend: 0x0, symName: __ZNSt3__19allocatorINS_8optionalIiEEE8allocateB8ue170006Em, symObjAddr: 0xB818, symBinAddr: 0x10000D668, symSize: 0x58 }
  - { offset: 0x2A06E, size: 0x8, addend: 0x0, symName: __ZNSt3__117__compressed_pairIPNS_8optionalIiEERNS_9allocatorIS2_EEE6secondB8ue170006Ev, symObjAddr: 0xB870, symBinAddr: 0x10000D6C0, symSize: 0x28 }
  - { offset: 0x2A094, size: 0x8, addend: 0x0, symName: __ZNSt3__122__compressed_pair_elemIRNS_9allocatorINS_8optionalIiEEEELi1ELb0EE5__getB8ue170006Ev, symObjAddr: 0xB898, symBinAddr: 0x10000D6E8, symSize: 0x18 }
  - { offset: 0x2A0BA, size: 0x8, addend: 0x0, symName: __ZNSt3__117__compressed_pairIPNS_8optionalIiEERNS_9allocatorIS2_EEE5firstB8ue170006Ev, symObjAddr: 0xB8B0, symBinAddr: 0x10000D700, symSize: 0x24 }
  - { offset: 0x2A0EC, size: 0x8, addend: 0x0, symName: __ZNSt3__114__split_bufferINS_8optionalIiEERNS_9allocatorIS2_EEE21_ConstructTransactionC1B8ue170006EPPS2_m, symObjAddr: 0xB8D4, symBinAddr: 0x10000D724, symSize: 0x3C }
  - { offset: 0x2A132, size: 0x8, addend: 0x0, symName: __ZNSt3__114__split_bufferINS_8optionalIiEERNS_9allocatorIS2_EEE21_ConstructTransactionD1B8ue170006Ev, symObjAddr: 0xB910, symBinAddr: 0x10000D760, symSize: 0x2C }
  - { offset: 0x2A15C, size: 0x8, addend: 0x0, symName: __ZNSt3__114__split_bufferINS_8optionalIiEERNS_9allocatorIS2_EEE21_ConstructTransactionC2B8ue170006EPPS2_m, symObjAddr: 0xB93C, symBinAddr: 0x10000D78C, symSize: 0x44 }
  - { offset: 0x2A1A2, size: 0x8, addend: 0x0, symName: __ZNSt3__114__split_bufferINS_8optionalIiEERNS_9allocatorIS2_EEE21_ConstructTransactionD2B8ue170006Ev, symObjAddr: 0xB980, symBinAddr: 0x10000D7D0, symSize: 0x20 }
  - { offset: 0x2A1CC, size: 0x8, addend: 0x0, symName: __ZNKSt3__16vectorINS_8optionalIiEENS_9allocatorIS2_EEE17__annotate_deleteB8ue170006Ev, symObjAddr: 0xB9A0, symBinAddr: 0x10000D7F0, symSize: 0xB8 }
  - { offset: 0x2A1F2, size: 0x8, addend: 0x0, symName: __ZNSt3__116reverse_iteratorIPNS_8optionalIiEEEC1B8ue170006ES3_, symObjAddr: 0xBAD0, symBinAddr: 0x10000D920, symSize: 0x34 }
  - { offset: 0x2A22A, size: 0x8, addend: 0x0, symName: __ZNKSt3__116reverse_iteratorIPNS_8optionalIiEEE4baseB8ue170006Ev, symObjAddr: 0xBB04, symBinAddr: 0x10000D954, symSize: 0x18 }
  - { offset: 0x2A250, size: 0x8, addend: 0x0, symName: __ZNKSt3__16vectorINS_8optionalIiEENS_9allocatorIS2_EEE14__annotate_newB8ue170006Em, symObjAddr: 0xBB58, symBinAddr: 0x10000D9A8, symSize: 0xAC }
  - { offset: 0x2A285, size: 0x8, addend: 0x0, symName: __ZNKSt3__16vectorINS_8optionalIiEENS_9allocatorIS2_EEE31__annotate_contiguous_containerB8ue170006EPKvS7_S7_S7_, symObjAddr: 0xBC04, symBinAddr: 0x10000DA54, symSize: 0x20 }
  - { offset: 0x2A2D7, size: 0x8, addend: 0x0, symName: __ZNKSt3__16vectorINS_8optionalIiEENS_9allocatorIS2_EEE4dataB8ue170006Ev, symObjAddr: 0xBC24, symBinAddr: 0x10000DA74, symSize: 0x28 }
  - { offset: 0x2A325, size: 0x8, addend: 0x0, symName: __ZNKSt3__111__move_loopINS_17_ClassicAlgPolicyEEclB8ue170006INS_16reverse_iteratorIPNS_8optionalIiEEEES8_S8_EENS_4pairIT_T1_EESA_T0_SB_, symObjAddr: 0xBF3C, symBinAddr: 0x10000DD8C, symSize: 0xA8 }
  - { offset: 0x2A390, size: 0x8, addend: 0x0, symName: __ZNSt3__18_IterOpsINS_17_ClassicAlgPolicyEE11__iter_moveB8ue170006IRNS_16reverse_iteratorIPNS_8optionalIiEEEEEENS_9enable_ifIXsr12is_referenceIDTdeclsr3stdE7declvalIRT_EEEEE5valueEDTclsr3stdE4movedeclsr3stdE7declvalISC_EEEEE4typeEOSB_, symObjAddr: 0xC178, symBinAddr: 0x10000DFC8, symSize: 0x28 }
  - { offset: 0x2A3BC, size: 0x8, addend: 0x0, symName: __ZNKSt3__116reverse_iteratorIPNS_8optionalIiEEEdeB8ue170006Ev, symObjAddr: 0xC1A0, symBinAddr: 0x10000DFF0, symSize: 0x28 }
  - { offset: 0x2A3F0, size: 0x8, addend: 0x0, symName: __ZNSt3__116reverse_iteratorIPNS_8optionalIiEEEppB8ue170006Ev, symObjAddr: 0xC1C8, symBinAddr: 0x10000E018, symSize: 0x20 }
  - { offset: 0x2A416, size: 0x8, addend: 0x0, symName: __ZNSt3__18_IterOpsINS_17_ClassicAlgPolicyEE25__validate_iter_referenceB8ue170006IRNS_16reverse_iteratorIPNS_8optionalIiEEEEEEvv, symObjAddr: 0xC1E8, symBinAddr: 0x10000E038, symSize: 0x4 }
  - { offset: 0x2A434, size: 0x8, addend: 0x0, symName: __ZNSt3__118__unwrap_iter_implINS_16reverse_iteratorIPNS_8optionalIiEEEELb0EE8__unwrapB8ue170006ES5_, symObjAddr: 0xC1EC, symBinAddr: 0x10000E03C, symSize: 0x24 }
  - { offset: 0x2A45D, size: 0x8, addend: 0x0, symName: __ZNSt3__14pairINS_16reverse_iteratorIPNS_8optionalIiEEEES5_EC1B8ue170006IS5_S5_LPv0EEEOT_OT0_, symObjAddr: 0xC210, symBinAddr: 0x10000E060, symSize: 0x3C }
  - { offset: 0x2A4BB, size: 0x8, addend: 0x0, symName: __ZNSt3__14pairINS_16reverse_iteratorIPNS_8optionalIiEEEES5_EC2B8ue170006IS5_S5_LPv0EEEOT_OT0_, symObjAddr: 0xC24C, symBinAddr: 0x10000E09C, symSize: 0x34 }
  - { offset: 0x2A519, size: 0x8, addend: 0x0, symName: __ZNSt3__118__unwrap_iter_implINS_16reverse_iteratorIPNS_8optionalIiEEEELb0EE8__rewrapB8ue170006ES5_S5_, symObjAddr: 0xC280, symBinAddr: 0x10000E0D0, symSize: 0x2C }
  - { offset: 0x2A547, size: 0x8, addend: 0x0, symName: __ZNSt3__116reverse_iteratorIPNS_8optionalIiEEEC2B8ue170006ES3_, symObjAddr: 0xC2AC, symBinAddr: 0x10000E0FC, symSize: 0x28 }
  - { offset: 0x2A57F, size: 0x8, addend: 0x0, symName: __ZNSt3__114__split_bufferINS_8optionalIiEERNS_9allocatorIS2_EEED2Ev, symObjAddr: 0xC2D4, symBinAddr: 0x10000E124, symSize: 0x8C }
  - { offset: 0x2A5AB, size: 0x8, addend: 0x0, symName: __ZNSt3__114__split_bufferINS_8optionalIiEERNS_9allocatorIS2_EEE5clearB8ue170006Ev, symObjAddr: 0xC360, symBinAddr: 0x10000E1B0, symSize: 0x28 }
  - { offset: 0x2A5D1, size: 0x8, addend: 0x0, symName: __ZNSt3__116allocator_traitsINS_9allocatorINS_8optionalIiEEEEE10deallocateB8ue170006ERS4_PS3_m, symObjAddr: 0xC388, symBinAddr: 0x10000E1D8, symSize: 0x34 }
  - { offset: 0x2A613, size: 0x8, addend: 0x0, symName: __ZNKSt3__114__split_bufferINS_8optionalIiEERNS_9allocatorIS2_EEE8capacityB8ue170006Ev, symObjAddr: 0xC3BC, symBinAddr: 0x10000E20C, symSize: 0x40 }
  - { offset: 0x2A639, size: 0x8, addend: 0x0, symName: __ZNSt3__114__split_bufferINS_8optionalIiEERNS_9allocatorIS2_EEE17__destruct_at_endB8ue170006EPS2_, symObjAddr: 0xC3FC, symBinAddr: 0x10000E24C, symSize: 0x2C }
  - { offset: 0x2A66D, size: 0x8, addend: 0x0, symName: __ZNSt3__114__split_bufferINS_8optionalIiEERNS_9allocatorIS2_EEE17__destruct_at_endB8ue170006EPS2_NS_17integral_constantIbLb0EEE, symObjAddr: 0xC428, symBinAddr: 0x10000E278, symSize: 0x80 }
  - { offset: 0x2A6AE, size: 0x8, addend: 0x0, symName: __ZNSt3__116allocator_traitsINS_9allocatorINS_8optionalIiEEEEE7destroyB8ue170006IS3_vEEvRS4_PT_, symObjAddr: 0xC4A8, symBinAddr: 0x10000E2F8, symSize: 0x2C }
  - { offset: 0x2A6EB, size: 0x8, addend: 0x0, symName: __ZNSt3__19allocatorINS_8optionalIiEEE7destroyB8ue170006EPS2_, symObjAddr: 0xC4D4, symBinAddr: 0x10000E324, symSize: 0x14 }
  - { offset: 0x2A71F, size: 0x8, addend: 0x0, symName: __ZNSt3__19allocatorINS_8optionalIiEEE10deallocateB8ue170006EPS2_m, symObjAddr: 0xC4E8, symBinAddr: 0x10000E338, symSize: 0x40 }
  - { offset: 0x2A761, size: 0x8, addend: 0x0, symName: __ZNKSt3__114__split_bufferINS_8optionalIiEERNS_9allocatorIS2_EEE9__end_capB8ue170006Ev, symObjAddr: 0xC528, symBinAddr: 0x10000E378, symSize: 0x28 }
  - { offset: 0x2A787, size: 0x8, addend: 0x0, symName: __ZNKSt3__117__compressed_pairIPNS_8optionalIiEERNS_9allocatorIS2_EEE5firstB8ue170006Ev, symObjAddr: 0xC550, symBinAddr: 0x10000E3A0, symSize: 0x24 }
  - { offset: 0x2A7AD, size: 0x8, addend: 0x0, symName: __ZNSt3__16vectorINS_8optionalIiEENS_9allocatorIS2_EEE22__base_destruct_at_endB8ue170006EPS2_, symObjAddr: 0xC574, symBinAddr: 0x10000E3C4, symSize: 0x8C }
  - { offset: 0x2A7F1, size: 0x8, addend: 0x0, symName: __ZNKSt3__16vectorINS_8optionalIiEENS_9allocatorIS2_EEE17__annotate_shrinkB8ue170006Em, symObjAddr: 0xC600, symBinAddr: 0x10000E450, symSize: 0xB4 }
  - { offset: 0x2A826, size: 0x8, addend: 0x0, symName: __ZNSt3__16vectorINS_8optionalIiEENS_9allocatorIS2_EEED2B8ue170006Ev, symObjAddr: 0xC6B4, symBinAddr: 0x10000E504, symSize: 0x44 }
  - { offset: 0x2A850, size: 0x8, addend: 0x0, symName: __ZNSt3__16vectorINS_8optionalIiEENS_9allocatorIS2_EEE16__destroy_vectorC1B8ue170006ERS5_, symObjAddr: 0xC6F8, symBinAddr: 0x10000E548, symSize: 0x34 }
  - { offset: 0x2A889, size: 0x8, addend: 0x0, symName: __ZNSt3__16vectorINS_8optionalIiEENS_9allocatorIS2_EEE16__destroy_vectorclB8ue170006Ev, symObjAddr: 0xC72C, symBinAddr: 0x10000E57C, symSize: 0x90 }
  - { offset: 0x2A8AF, size: 0x8, addend: 0x0, symName: __ZNSt3__16vectorINS_8optionalIiEENS_9allocatorIS2_EEE16__destroy_vectorC2B8ue170006ERS5_, symObjAddr: 0xC7BC, symBinAddr: 0x10000E60C, symSize: 0x20 }
  - { offset: 0x2A8E8, size: 0x8, addend: 0x0, symName: __ZNSt3__16vectorINS_8optionalIiEENS_9allocatorIS2_EEE7__clearB8ue170006Ev, symObjAddr: 0xC7DC, symBinAddr: 0x10000E62C, symSize: 0x28 }
  - { offset: 0x2A90E, size: 0x8, addend: 0x0, symName: __ZNSt3__113random_deviceC1B8ue170006Ev, symObjAddr: 0xC804, symBinAddr: 0x10000E654, symSize: 0x74 }
  - { offset: 0x2A938, size: 0x8, addend: 0x0, symName: __ZNSt3__123mersenne_twister_engineIjLm32ELm624ELm397ELm31ELj2567483615ELm11ELj4294967295ELm7ELj2636928640ELm15ELj4022730752ELm18ELj1812433253EEC1B8ue170006Ej, symObjAddr: 0xC878, symBinAddr: 0x10000E6C8, symSize: 0x34 }
  - { offset: 0x2A974, size: 0x8, addend: 0x0, symName: __ZN7details15generateUniformERNSt3__123mersenne_twister_engineIjLm32ELm624ELm397ELm31ELj2567483615ELm11ELj4294967295ELm7ELj2636928640ELm15ELj4022730752ELm18ELj1812433253EEEidd, symObjAddr: 0xC8AC, symBinAddr: 0x10000E6FC, symSize: 0x184 }
  - { offset: 0x2AA03, size: 0x8, addend: 0x0, symName: __ZN7details15generate_normalERNSt3__123mersenne_twister_engineIjLm32ELm624ELm397ELm31ELj2567483615ELm11ELj4294967295ELm7ELj2636928640ELm15ELj4022730752ELm18ELj1812433253EEEidd, symObjAddr: 0xCA30, symBinAddr: 0x10000E880, symSize: 0x18C }
  - { offset: 0x2AAAE, size: 0x8, addend: 0x0, symName: __ZN7details18generate_clusteredERNSt3__123mersenne_twister_engineIjLm32ELm624ELm397ELm31ELj2567483615ELm11ELj4294967295ELm7ELj2636928640ELm15ELj4022730752ELm18ELj1812433253EEEidd, symObjAddr: 0xCBBC, symBinAddr: 0x10000EA0C, symSize: 0x324 }
  - { offset: 0x2ABD8, size: 0x8, addend: 0x0, symName: __ZN7details19generate_sequentialERNSt3__123mersenne_twister_engineIjLm32ELm624ELm397ELm31ELj2567483615ELm11ELj4294967295ELm7ELj2636928640ELm15ELj4022730752ELm18ELj1812433253EEEidd, symObjAddr: 0xCEE0, symBinAddr: 0x10000ED30, symSize: 0x154 }
  - { offset: 0x2AC67, size: 0x8, addend: 0x0, symName: __ZNSt3__123mersenne_twister_engineIjLm32ELm624ELm397ELm31ELj2567483615ELm11ELj4294967295ELm7ELj2636928640ELm15ELj4022730752ELm18ELj1812433253EEC2B8ue170006Ej, symObjAddr: 0xD034, symBinAddr: 0x10000EE84, symSize: 0x34 }
  - { offset: 0x2AC9F, size: 0x8, addend: 0x0, symName: __ZNSt3__123mersenne_twister_engineIjLm32ELm624ELm397ELm31ELj2567483615ELm11ELj4294967295ELm7ELj2636928640ELm15ELj4022730752ELm18ELj1812433253EE4seedEj, symObjAddr: 0xD068, symBinAddr: 0x10000EEB8, symSize: 0xC8 }
  - { offset: 0x2ACF2, size: 0x8, addend: 0x0, symName: __ZNSt3__123mersenne_twister_engineIjLm32ELm624ELm397ELm31ELj2567483615ELm11ELj4294967295ELm7ELj2636928640ELm15ELj4022730752ELm18ELj1812433253EE8__rshiftB8ue170006ILm30EEENS_9enable_ifIXltT_L_ZNS1_3_DtEEEjE4typeEj, symObjAddr: 0xD130, symBinAddr: 0x10000EF80, symSize: 0x18 }
  - { offset: 0x2AD1F, size: 0x8, addend: 0x0, symName: __ZNSt3__124uniform_int_distributionIiEC1B8ue170006Eii, symObjAddr: 0xD148, symBinAddr: 0x10000EF98, symSize: 0x3C }
  - { offset: 0x2AD65, size: 0x8, addend: 0x0, symName: __ZNSt3__16vectorIiNS_9allocatorIiEEEC1B8ue170006Ev, symObjAddr: 0xD184, symBinAddr: 0x10000EFD4, symSize: 0x2C }
  - { offset: 0x2AD8F, size: 0x8, addend: 0x0, symName: __ZNSt3__16vectorIiNS_9allocatorIiEEE7reserveEm, symObjAddr: 0xD1B0, symBinAddr: 0x10000F000, symSize: 0xE8 }
  - { offset: 0x2ADEB, size: 0x8, addend: 0x0, symName: __ZNSt3__16vectorIiNS_9allocatorIiEEE9push_backB8ue170006EOi, symObjAddr: 0xD298, symBinAddr: 0x10000F0E8, symSize: 0x6C }
  - { offset: 0x2AE22, size: 0x8, addend: 0x0, symName: __ZNSt3__124uniform_int_distributionIiEclB8ue170006INS_23mersenne_twister_engineIjLm32ELm624ELm397ELm31ELj2567483615ELm11ELj4294967295ELm7ELj2636928640ELm15ELj4022730752ELm18ELj1812433253EEEEEiRT_, symObjAddr: 0xD304, symBinAddr: 0x10000F154, symSize: 0x30 }
  - { offset: 0x2AE5F, size: 0x8, addend: 0x0, symName: __ZNSt3__124uniform_int_distributionIiEC2B8ue170006Eii, symObjAddr: 0xD334, symBinAddr: 0x10000F184, symSize: 0x3C }
  - { offset: 0x2AEA5, size: 0x8, addend: 0x0, symName: __ZNSt3__124uniform_int_distributionIiE10param_typeC1B8ue170006Eii, symObjAddr: 0xD370, symBinAddr: 0x10000F1C0, symSize: 0x3C }
  - { offset: 0x2AEEB, size: 0x8, addend: 0x0, symName: __ZNSt3__124uniform_int_distributionIiE10param_typeC2B8ue170006Eii, symObjAddr: 0xD3AC, symBinAddr: 0x10000F1FC, symSize: 0x2C }
  - { offset: 0x2AF31, size: 0x8, addend: 0x0, symName: __ZNSt3__16vectorIiNS_9allocatorIiEEEC2B8ue170006Ev, symObjAddr: 0xD3D8, symBinAddr: 0x10000F228, symSize: 0x4C }
  - { offset: 0x2AF5B, size: 0x8, addend: 0x0, symName: __ZNSt3__114__split_bufferIiRNS_9allocatorIiEEEC1EmmS3_, symObjAddr: 0xD424, symBinAddr: 0x10000F274, symSize: 0x44 }
  - { offset: 0x2AFB1, size: 0x8, addend: 0x0, symName: __ZNSt3__114__split_bufferIiRNS_9allocatorIiEEED1Ev, symObjAddr: 0xD578, symBinAddr: 0x10000F3C8, symSize: 0x2C }
  - { offset: 0x2AFDD, size: 0x8, addend: 0x0, symName: __ZNSt3__114__split_bufferIiRNS_9allocatorIiEEEC2EmmS3_, symObjAddr: 0xD5A4, symBinAddr: 0x10000F3F4, symSize: 0xD4 }
  - { offset: 0x2B050, size: 0x8, addend: 0x0, symName: __ZNSt3__117__compressed_pairIPiRNS_9allocatorIiEEEC1B8ue170006IDnS4_EEOT_OT0_, symObjAddr: 0xD678, symBinAddr: 0x10000F4C8, symSize: 0x3C }
  - { offset: 0x2B0A8, size: 0x8, addend: 0x0, symName: __ZNSt3__114__split_bufferIiRNS_9allocatorIiEEE7__allocB8ue170006Ev, symObjAddr: 0xD6B4, symBinAddr: 0x10000F504, symSize: 0x28 }
  - { offset: 0x2B0CE, size: 0x8, addend: 0x0, symName: __ZNSt3__114__split_bufferIiRNS_9allocatorIiEEE9__end_capB8ue170006Ev, symObjAddr: 0xD6DC, symBinAddr: 0x10000F52C, symSize: 0x28 }
  - { offset: 0x2B0F4, size: 0x8, addend: 0x0, symName: __ZNSt3__117__compressed_pairIPiRNS_9allocatorIiEEEC2B8ue170006IDnS4_EEOT_OT0_, symObjAddr: 0xD704, symBinAddr: 0x10000F554, symSize: 0x48 }
  - { offset: 0x2B14C, size: 0x8, addend: 0x0, symName: __ZNSt3__122__compressed_pair_elemIRNS_9allocatorIiEELi1ELb0EEC2B8ue170006IS3_vEEOT_, symObjAddr: 0xD74C, symBinAddr: 0x10000F59C, symSize: 0x20 }
  - { offset: 0x2B18E, size: 0x8, addend: 0x0, symName: __ZNSt3__117__compressed_pairIPiRNS_9allocatorIiEEE6secondB8ue170006Ev, symObjAddr: 0xD76C, symBinAddr: 0x10000F5BC, symSize: 0x28 }
  - { offset: 0x2B1B4, size: 0x8, addend: 0x0, symName: __ZNSt3__122__compressed_pair_elemIRNS_9allocatorIiEELi1ELb0EE5__getB8ue170006Ev, symObjAddr: 0xD794, symBinAddr: 0x10000F5E4, symSize: 0x18 }
  - { offset: 0x2B1DA, size: 0x8, addend: 0x0, symName: __ZNSt3__117__compressed_pairIPiRNS_9allocatorIiEEE5firstB8ue170006Ev, symObjAddr: 0xD7AC, symBinAddr: 0x10000F5FC, symSize: 0x24 }
  - { offset: 0x2B200, size: 0x8, addend: 0x0, symName: __ZNSt3__116reverse_iteratorIPiEC1B8ue170006ES1_, symObjAddr: 0xD848, symBinAddr: 0x10000F698, symSize: 0x34 }
  - { offset: 0x2B238, size: 0x8, addend: 0x0, symName: __ZNKSt3__116reverse_iteratorIPiE4baseB8ue170006Ev, symObjAddr: 0xD87C, symBinAddr: 0x10000F6CC, symSize: 0x18 }
  - { offset: 0x2B27B, size: 0x8, addend: 0x0, symName: __ZNKSt3__111__move_loopINS_17_ClassicAlgPolicyEEclB8ue170006INS_16reverse_iteratorIPiEES6_S6_EENS_4pairIT_T1_EES8_T0_S9_, symObjAddr: 0xDBC0, symBinAddr: 0x10000FA10, symSize: 0xA0 }
  - { offset: 0x2B2E6, size: 0x8, addend: 0x0, symName: __ZNSt3__18_IterOpsINS_17_ClassicAlgPolicyEE11__iter_moveB8ue170006IRNS_16reverse_iteratorIPiEEEENS_9enable_ifIXsr12is_referenceIDTdeclsr3stdE7declvalIRT_EEEEE5valueEDTclsr3stdE4movedeclsr3stdE7declvalISA_EEEEE4typeEOS9_, symObjAddr: 0xDDF4, symBinAddr: 0x10000FC44, symSize: 0x28 }
  - { offset: 0x2B312, size: 0x8, addend: 0x0, symName: __ZNKSt3__116reverse_iteratorIPiEdeB8ue170006Ev, symObjAddr: 0xDE1C, symBinAddr: 0x10000FC6C, symSize: 0x28 }
  - { offset: 0x2B346, size: 0x8, addend: 0x0, symName: __ZNSt3__116reverse_iteratorIPiEppB8ue170006Ev, symObjAddr: 0xDE44, symBinAddr: 0x10000FC94, symSize: 0x20 }
  - { offset: 0x2B36C, size: 0x8, addend: 0x0, symName: __ZNSt3__18_IterOpsINS_17_ClassicAlgPolicyEE25__validate_iter_referenceB8ue170006IRNS_16reverse_iteratorIPiEEEEvv, symObjAddr: 0xDE64, symBinAddr: 0x10000FCB4, symSize: 0x4 }
  - { offset: 0x2B38A, size: 0x8, addend: 0x0, symName: __ZNSt3__118__unwrap_iter_implINS_16reverse_iteratorIPiEELb0EE8__unwrapB8ue170006ES3_, symObjAddr: 0xDE68, symBinAddr: 0x10000FCB8, symSize: 0x24 }
  - { offset: 0x2B3B3, size: 0x8, addend: 0x0, symName: __ZNSt3__14pairINS_16reverse_iteratorIPiEES3_EC1B8ue170006IS3_S3_LPv0EEEOT_OT0_, symObjAddr: 0xDE8C, symBinAddr: 0x10000FCDC, symSize: 0x3C }
  - { offset: 0x2B411, size: 0x8, addend: 0x0, symName: __ZNSt3__14pairINS_16reverse_iteratorIPiEES3_EC2B8ue170006IS3_S3_LPv0EEEOT_OT0_, symObjAddr: 0xDEC8, symBinAddr: 0x10000FD18, symSize: 0x34 }
  - { offset: 0x2B46F, size: 0x8, addend: 0x0, symName: __ZNSt3__118__unwrap_iter_implINS_16reverse_iteratorIPiEELb0EE8__rewrapB8ue170006ES3_S3_, symObjAddr: 0xDEFC, symBinAddr: 0x10000FD4C, symSize: 0x2C }
  - { offset: 0x2B49D, size: 0x8, addend: 0x0, symName: __ZNSt3__116reverse_iteratorIPiEC2B8ue170006ES1_, symObjAddr: 0xDF28, symBinAddr: 0x10000FD78, symSize: 0x28 }
  - { offset: 0x2B4D5, size: 0x8, addend: 0x0, symName: __ZNSt3__114__split_bufferIiRNS_9allocatorIiEEED2Ev, symObjAddr: 0xDF50, symBinAddr: 0x10000FDA0, symSize: 0x8C }
  - { offset: 0x2B501, size: 0x8, addend: 0x0, symName: __ZNSt3__114__split_bufferIiRNS_9allocatorIiEEE5clearB8ue170006Ev, symObjAddr: 0xDFDC, symBinAddr: 0x10000FE2C, symSize: 0x28 }
  - { offset: 0x2B527, size: 0x8, addend: 0x0, symName: __ZNKSt3__114__split_bufferIiRNS_9allocatorIiEEE8capacityB8ue170006Ev, symObjAddr: 0xE004, symBinAddr: 0x10000FE54, symSize: 0x40 }
  - { offset: 0x2B54D, size: 0x8, addend: 0x0, symName: __ZNSt3__114__split_bufferIiRNS_9allocatorIiEEE17__destruct_at_endB8ue170006EPi, symObjAddr: 0xE044, symBinAddr: 0x10000FE94, symSize: 0x2C }
  - { offset: 0x2B581, size: 0x8, addend: 0x0, symName: __ZNSt3__114__split_bufferIiRNS_9allocatorIiEEE17__destruct_at_endB8ue170006EPiNS_17integral_constantIbLb0EEE, symObjAddr: 0xE070, symBinAddr: 0x10000FEC0, symSize: 0x80 }
  - { offset: 0x2B5C2, size: 0x8, addend: 0x0, symName: __ZNKSt3__114__split_bufferIiRNS_9allocatorIiEEE9__end_capB8ue170006Ev, symObjAddr: 0xE0F0, symBinAddr: 0x10000FF40, symSize: 0x28 }
  - { offset: 0x2B5E8, size: 0x8, addend: 0x0, symName: __ZNKSt3__117__compressed_pairIPiRNS_9allocatorIiEEE5firstB8ue170006Ev, symObjAddr: 0xE118, symBinAddr: 0x10000FF68, symSize: 0x24 }
  - { offset: 0x2B60E, size: 0x8, addend: 0x0, symName: __ZNSt3__16vectorIiNS_9allocatorIiEEE22__construct_one_at_endB8ue170006IJiEEEvDpOT_, symObjAddr: 0xE13C, symBinAddr: 0x10000FF8C, symSize: 0x90 }
  - { offset: 0x2B65D, size: 0x8, addend: 0x0, symName: __ZNSt3__16vectorIiNS_9allocatorIiEEE21__push_back_slow_pathIiEEvOT_, symObjAddr: 0xE1CC, symBinAddr: 0x10001001C, symSize: 0xD8 }
  - { offset: 0x2B6BB, size: 0x8, addend: 0x0, symName: __ZNSt3__116allocator_traitsINS_9allocatorIiEEE9constructB8ue170006IiJiEvEEvRS2_PT_DpOT0_, symObjAddr: 0xE2A4, symBinAddr: 0x1000100F4, symSize: 0x34 }
  - { offset: 0x2B712, size: 0x8, addend: 0x0, symName: __ZNSt3__19allocatorIiE9constructB8ue170006IiJiEEEvPT_DpOT0_, symObjAddr: 0xE2D8, symBinAddr: 0x100010128, symSize: 0x28 }
  - { offset: 0x2B768, size: 0x8, addend: 0x0, symName: __ZNKSt3__16vectorIiNS_9allocatorIiEEE11__recommendB8ue170006Em, symObjAddr: 0xE300, symBinAddr: 0x100010150, symSize: 0xB4 }
  - { offset: 0x2B7BD, size: 0x8, addend: 0x0, symName: __ZNKSt3__124uniform_int_distributionIiE10param_type1bB8ue170006Ev, symObjAddr: 0xE53C, symBinAddr: 0x10001038C, symSize: 0x18 }
  - { offset: 0x2B7E3, size: 0x8, addend: 0x0, symName: __ZNKSt3__124uniform_int_distributionIiE10param_type1aB8ue170006Ev, symObjAddr: 0xE554, symBinAddr: 0x1000103A4, symSize: 0x18 }
  - { offset: 0x2B809, size: 0x8, addend: 0x0, symName: __ZNSt3__125__independent_bits_engineINS_23mersenne_twister_engineIjLm32ELm624ELm397ELm31ELj2567483615ELm11ELj4294967295ELm7ELj2636928640ELm15ELj4022730752ELm18ELj1812433253EEEjEC1ERS2_m, symObjAddr: 0xE56C, symBinAddr: 0x1000103BC, symSize: 0x3C }
  - { offset: 0x2B850, size: 0x8, addend: 0x0, symName: __ZNSt3__125__independent_bits_engineINS_23mersenne_twister_engineIjLm32ELm624ELm397ELm31ELj2567483615ELm11ELj4294967295ELm7ELj2636928640ELm15ELj4022730752ELm18ELj1812433253EEEjEclB8ue170006Ev, symObjAddr: 0xE5A8, symBinAddr: 0x1000103F8, symSize: 0x24 }
  - { offset: 0x2B876, size: 0x8, addend: 0x0, symName: __ZNSt3__114numeric_limitsIjE3maxB8ue170006Ev, symObjAddr: 0xE620, symBinAddr: 0x100010470, symSize: 0x14 }
  - { offset: 0x2B88A, size: 0x8, addend: 0x0, symName: __ZNSt3__125__independent_bits_engineINS_23mersenne_twister_engineIjLm32ELm624ELm397ELm31ELj2567483615ELm11ELj4294967295ELm7ELj2636928640ELm15ELj4022730752ELm18ELj1812433253EEEjEC2ERS2_m, symObjAddr: 0xE634, symBinAddr: 0x100010484, symSize: 0x230 }
  - { offset: 0x2B8D1, size: 0x8, addend: 0x0, symName: __ZNSt3__125__independent_bits_engineINS_23mersenne_twister_engineIjLm32ELm624ELm397ELm31ELj2567483615ELm11ELj4294967295ELm7ELj2636928640ELm15ELj4022730752ELm18ELj1812433253EEEjE6__evalENS_17integral_constantIbLb0EEE, symObjAddr: 0xE864, symBinAddr: 0x1000106B4, symSize: 0x38 }
  - { offset: 0x2B903, size: 0x8, addend: 0x0, symName: __ZNSt3__123mersenne_twister_engineIjLm32ELm624ELm397ELm31ELj2567483615ELm11ELj4294967295ELm7ELj2636928640ELm15ELj4022730752ELm18ELj1812433253EEclEv, symObjAddr: 0xE89C, symBinAddr: 0x1000106EC, symSize: 0x14C }
  - { offset: 0x2B976, size: 0x8, addend: 0x0, symName: __ZNSt3__123mersenne_twister_engineIjLm32ELm624ELm397ELm31ELj2567483615ELm11ELj4294967295ELm7ELj2636928640ELm15ELj4022730752ELm18ELj1812433253EE8__rshiftB8ue170006ILm1EEENS_9enable_ifIXltT_L_ZNS1_3_DtEEEjE4typeEj, symObjAddr: 0xE9E8, symBinAddr: 0x100010838, symSize: 0x18 }
  - { offset: 0x2B9A3, size: 0x8, addend: 0x0, symName: __ZNSt3__123mersenne_twister_engineIjLm32ELm624ELm397ELm31ELj2567483615ELm11ELj4294967295ELm7ELj2636928640ELm15ELj4022730752ELm18ELj1812433253EE8__rshiftB8ue170006ILm11EEENS_9enable_ifIXltT_L_ZNS1_3_DtEEEjE4typeEj, symObjAddr: 0xEA00, symBinAddr: 0x100010850, symSize: 0x18 }
  - { offset: 0x2B9D0, size: 0x8, addend: 0x0, symName: __ZNSt3__123mersenne_twister_engineIjLm32ELm624ELm397ELm31ELj2567483615ELm11ELj4294967295ELm7ELj2636928640ELm15ELj4022730752ELm18ELj1812433253EE8__lshiftB8ue170006ILm7EEENS_9enable_ifIXltT_Lm32EEjE4typeEj, symObjAddr: 0xEA18, symBinAddr: 0x100010868, symSize: 0x1C }
  - { offset: 0x2B9FD, size: 0x8, addend: 0x0, symName: __ZNSt3__123mersenne_twister_engineIjLm32ELm624ELm397ELm31ELj2567483615ELm11ELj4294967295ELm7ELj2636928640ELm15ELj4022730752ELm18ELj1812433253EE8__lshiftB8ue170006ILm15EEENS_9enable_ifIXltT_Lm32EEjE4typeEj, symObjAddr: 0xEA34, symBinAddr: 0x100010884, symSize: 0x1C }
  - { offset: 0x2BA2A, size: 0x8, addend: 0x0, symName: __ZNSt3__123mersenne_twister_engineIjLm32ELm624ELm397ELm31ELj2567483615ELm11ELj4294967295ELm7ELj2636928640ELm15ELj4022730752ELm18ELj1812433253EE8__rshiftB8ue170006ILm18EEENS_9enable_ifIXltT_L_ZNS1_3_DtEEEjE4typeEj, symObjAddr: 0xEA50, symBinAddr: 0x1000108A0, symSize: 0x18 }
  - { offset: 0x2BA57, size: 0x8, addend: 0x0, symName: __ZNSt3__123__libcpp_numeric_limitsIjLb1EE3maxB8ue170006Ev, symObjAddr: 0xEA80, symBinAddr: 0x1000108D0, symSize: 0x8 }
  - { offset: 0x2BA6B, size: 0x8, addend: 0x0, symName: __ZNSt3__119normal_distributionIdEC1B8ue170006Edd, symObjAddr: 0xEA88, symBinAddr: 0x1000108D8, symSize: 0x3C }
  - { offset: 0x2BAB1, size: 0x8, addend: 0x0, symName: __ZNSt3__119normal_distributionIdEclB8ue170006INS_23mersenne_twister_engineIjLm32ELm624ELm397ELm31ELj2567483615ELm11ELj4294967295ELm7ELj2636928640ELm15ELj4022730752ELm18ELj1812433253EEEEEdRT_, symObjAddr: 0xEAC4, symBinAddr: 0x100010914, symSize: 0x30 }
  - { offset: 0x2BAEE, size: 0x8, addend: 0x0, symName: __ZNSt3__16vectorIiNS_9allocatorIiEEE9push_backB8ue170006ERKi, symObjAddr: 0xEAF4, symBinAddr: 0x100010944, symSize: 0x6C }
  - { offset: 0x2BB25, size: 0x8, addend: 0x0, symName: __ZNSt3__119normal_distributionIdEC2B8ue170006Edd, symObjAddr: 0xEB60, symBinAddr: 0x1000109B0, symSize: 0x40 }
  - { offset: 0x2BB6B, size: 0x8, addend: 0x0, symName: __ZNSt3__119normal_distributionIdE10param_typeC1B8ue170006Edd, symObjAddr: 0xEBA0, symBinAddr: 0x1000109F0, symSize: 0x3C }
  - { offset: 0x2BBB1, size: 0x8, addend: 0x0, symName: __ZNSt3__119normal_distributionIdE10param_typeC2B8ue170006Edd, symObjAddr: 0xEBDC, symBinAddr: 0x100010A2C, symSize: 0x2C }
  - { offset: 0x2BBF7, size: 0x8, addend: 0x0, symName: __ZNSt3__119normal_distributionIdEclINS_23mersenne_twister_engineIjLm32ELm624ELm397ELm31ELj2567483615ELm11ELj4294967295ELm7ELj2636928640ELm15ELj4022730752ELm18ELj1812433253EEEEEdRT_RKNS1_10param_typeE, symObjAddr: 0xEC08, symBinAddr: 0x100010A58, symSize: 0x164 }
  - { offset: 0x2BCCE, size: 0x8, addend: 0x0, symName: __ZNSt3__125uniform_real_distributionIdEC1B8ue170006Edd, symObjAddr: 0xED6C, symBinAddr: 0x100010BBC, symSize: 0x3C }
  - { offset: 0x2BD14, size: 0x8, addend: 0x0, symName: __ZNSt3__125uniform_real_distributionIdEclB8ue170006INS_23mersenne_twister_engineIjLm32ELm624ELm397ELm31ELj2567483615ELm11ELj4294967295ELm7ELj2636928640ELm15ELj4022730752ELm18ELj1812433253EEEEEdRT_, symObjAddr: 0xEDA8, symBinAddr: 0x100010BF8, symSize: 0x30 }
  - { offset: 0x2BD51, size: 0x8, addend: 0x0, symName: __ZNKSt3__119normal_distributionIdE10param_type6stddevB8ue170006Ev, symObjAddr: 0xEDD8, symBinAddr: 0x100010C28, symSize: 0x18 }
  - { offset: 0x2BD77, size: 0x8, addend: 0x0, symName: __ZNKSt3__119normal_distributionIdE10param_type4meanB8ue170006Ev, symObjAddr: 0xEDF0, symBinAddr: 0x100010C40, symSize: 0x18 }
  - { offset: 0x2BD9D, size: 0x8, addend: 0x0, symName: __ZNSt3__125uniform_real_distributionIdEC2B8ue170006Edd, symObjAddr: 0xEE08, symBinAddr: 0x100010C58, symSize: 0x3C }
  - { offset: 0x2BDE3, size: 0x8, addend: 0x0, symName: __ZNSt3__125uniform_real_distributionIdE10param_typeC1B8ue170006Edd, symObjAddr: 0xEE44, symBinAddr: 0x100010C94, symSize: 0x3C }
  - { offset: 0x2BE29, size: 0x8, addend: 0x0, symName: __ZNSt3__125uniform_real_distributionIdE10param_typeC2B8ue170006Edd, symObjAddr: 0xEE80, symBinAddr: 0x100010CD0, symSize: 0x2C }
  - { offset: 0x2BE6F, size: 0x8, addend: 0x0, symName: __ZNSt3__125uniform_real_distributionIdEclINS_23mersenne_twister_engineIjLm32ELm624ELm397ELm31ELj2567483615ELm11ELj4294967295ELm7ELj2636928640ELm15ELj4022730752ELm18ELj1812433253EEEEEdRT_RKNS1_10param_typeE, symObjAddr: 0xEEAC, symBinAddr: 0x100010CFC, symSize: 0x6C }
  - { offset: 0x2BEBB, size: 0x8, addend: 0x0, symName: __ZNKSt3__125uniform_real_distributionIdE10param_type1bB8ue170006Ev, symObjAddr: 0xEF18, symBinAddr: 0x100010D68, symSize: 0x18 }
  - { offset: 0x2BEE1, size: 0x8, addend: 0x0, symName: __ZNKSt3__125uniform_real_distributionIdE10param_type1aB8ue170006Ev, symObjAddr: 0xEF30, symBinAddr: 0x100010D80, symSize: 0x18 }
  - { offset: 0x2BF07, size: 0x8, addend: 0x0, symName: __ZNSt3__123mersenne_twister_engineIjLm32ELm624ELm397ELm31ELj2567483615ELm11ELj4294967295ELm7ELj2636928640ELm15ELj4022730752ELm18ELj1812433253EE3maxB8ue170006Ev, symObjAddr: 0xF05C, symBinAddr: 0x100010EAC, symSize: 0x8 }
  - { offset: 0x2BF1B, size: 0x8, addend: 0x0, symName: __ZNSt3__123mersenne_twister_engineIjLm32ELm624ELm397ELm31ELj2567483615ELm11ELj4294967295ELm7ELj2636928640ELm15ELj4022730752ELm18ELj1812433253EE3minB8ue170006Ev, symObjAddr: 0xF064, symBinAddr: 0x100010EB4, symSize: 0x8 }
  - { offset: 0x2BF2F, size: 0x8, addend: 0x0, symName: __ZNSt3__16vectorIiNS_9allocatorIiEEE22__construct_one_at_endB8ue170006IJRKiEEEvDpOT_, symObjAddr: 0xF06C, symBinAddr: 0x100010EBC, symSize: 0x90 }
  - { offset: 0x2BF7E, size: 0x8, addend: 0x0, symName: __ZNSt3__16vectorIiNS_9allocatorIiEEE21__push_back_slow_pathIRKiEEvOT_, symObjAddr: 0xF0FC, symBinAddr: 0x100010F4C, symSize: 0xD8 }
  - { offset: 0x2BFDC, size: 0x8, addend: 0x0, symName: __ZNSt3__116allocator_traitsINS_9allocatorIiEEE9constructB8ue170006IiJRKiEvEEvRS2_PT_DpOT0_, symObjAddr: 0xF1D4, symBinAddr: 0x100011024, symSize: 0x34 }
  - { offset: 0x2C033, size: 0x8, addend: 0x0, symName: __ZNSt3__19allocatorIiE9constructB8ue170006IiJRKiEEEvPT_DpOT0_, symObjAddr: 0xF208, symBinAddr: 0x100011058, symSize: 0x28 }
  - { offset: 0x2C089, size: 0x8, addend: 0x0, symName: __ZNSt3__16vectorIdNS_9allocatorIdEEEC1B8ue170006ESt16initializer_listIdE, symObjAddr: 0xF230, symBinAddr: 0x100011080, symSize: 0x3C }
  - { offset: 0x2C0C4, size: 0x8, addend: 0x0, symName: __ZNSt3__16vectorINS_19normal_distributionIdEENS_9allocatorIS2_EEEC1B8ue170006Ev, symObjAddr: 0xF26C, symBinAddr: 0x1000110BC, symSize: 0x2C }
  - { offset: 0x2C0EE, size: 0x8, addend: 0x0, symName: __ZNSt3__16vectorIdNS_9allocatorIdEEE5beginB8ue170006Ev, symObjAddr: 0xF298, symBinAddr: 0x1000110E8, symSize: 0x30 }
  - { offset: 0x2C116, size: 0x8, addend: 0x0, symName: __ZNSt3__16vectorIdNS_9allocatorIdEEE3endB8ue170006Ev, symObjAddr: 0xF2C8, symBinAddr: 0x100011118, symSize: 0x30 }
  - { offset: 0x2C13E, size: 0x8, addend: 0x0, symName: __ZNKSt3__111__wrap_iterIPdEdeB8ue170006Ev, symObjAddr: 0xF32C, symBinAddr: 0x10001117C, symSize: 0x18 }
  - { offset: 0x2C164, size: 0x8, addend: 0x0, symName: __ZNSt3__16vectorINS_19normal_distributionIdEENS_9allocatorIS2_EEE12emplace_backIJRdS7_EEERS2_DpOT_, symObjAddr: 0xF344, symBinAddr: 0x100011194, symSize: 0x80 }
  - { offset: 0x2C1BA, size: 0x8, addend: 0x0, symName: __ZNSt3__111__wrap_iterIPdEppB8ue170006Ev, symObjAddr: 0xF3C4, symBinAddr: 0x100011214, symSize: 0x20 }
  - { offset: 0x2C1E0, size: 0x8, addend: 0x0, symName: __ZNKSt3__16vectorINS_19normal_distributionIdEENS_9allocatorIS2_EEE4sizeB8ue170006Ev, symObjAddr: 0xF3E4, symBinAddr: 0x100011234, symSize: 0x28 }
  - { offset: 0x2C206, size: 0x8, addend: 0x0, symName: __ZNSt3__124uniform_int_distributionImEC1B8ue170006Emm, symObjAddr: 0xF40C, symBinAddr: 0x10001125C, symSize: 0x3C }
  - { offset: 0x2C24C, size: 0x8, addend: 0x0, symName: __ZNSt3__124uniform_int_distributionImEclB8ue170006INS_23mersenne_twister_engineIjLm32ELm624ELm397ELm31ELj2567483615ELm11ELj4294967295ELm7ELj2636928640ELm15ELj4022730752ELm18ELj1812433253EEEEEmRT_, symObjAddr: 0xF448, symBinAddr: 0x100011298, symSize: 0x30 }
  - { offset: 0x2C289, size: 0x8, addend: 0x0, symName: __ZNSt3__16vectorINS_19normal_distributionIdEENS_9allocatorIS2_EEEixB8ue170006Em, symObjAddr: 0xF478, symBinAddr: 0x1000112C8, symSize: 0x24 }
  - { offset: 0x2C2C0, size: 0x8, addend: 0x0, symName: __ZNSt3__16vectorINS_19normal_distributionIdEENS_9allocatorIS2_EEED1B8ue170006Ev, symObjAddr: 0xF49C, symBinAddr: 0x1000112EC, symSize: 0x2C }
  - { offset: 0x2C2EA, size: 0x8, addend: 0x0, symName: __ZNSt3__16vectorIdNS_9allocatorIdEEED1B8ue170006Ev, symObjAddr: 0xF4C8, symBinAddr: 0x100011318, symSize: 0x2C }
  - { offset: 0x2C314, size: 0x8, addend: 0x0, symName: __ZNSt3__16vectorIdNS_9allocatorIdEEEC2B8ue170006ESt16initializer_listIdE, symObjAddr: 0xF4F4, symBinAddr: 0x100011344, symSize: 0x120 }
  - { offset: 0x2C364, size: 0x8, addend: 0x0, symName: __ZNSt3__117__compressed_pairIPdNS_9allocatorIdEEEC1B8ue170006IDnNS_18__default_init_tagEEEOT_OT0_, symObjAddr: 0xF614, symBinAddr: 0x100011464, symSize: 0x3C }
  - { offset: 0x2C3BC, size: 0x8, addend: 0x0, symName: __ZNSt3__16vectorIdNS_9allocatorIdEEE16__destroy_vectorC1B8ue170006ERS3_, symObjAddr: 0xF690, symBinAddr: 0x1000114E0, symSize: 0x34 }
  - { offset: 0x2C3F5, size: 0x8, addend: 0x0, symName: __ZNKSt16initializer_listIdE4sizeB8ue170006Ev, symObjAddr: 0xF6C4, symBinAddr: 0x100011514, symSize: 0x18 }
  - { offset: 0x2C41B, size: 0x8, addend: 0x0, symName: __ZNSt3__16vectorIdNS_9allocatorIdEEE11__vallocateB8ue170006Em, symObjAddr: 0xF6DC, symBinAddr: 0x10001152C, symSize: 0xAC }
  - { offset: 0x2C45F, size: 0x8, addend: 0x0, symName: __ZNSt3__16vectorIdNS_9allocatorIdEEE18__construct_at_endIPKdS6_EEvT_T0_m, symObjAddr: 0xF788, symBinAddr: 0x1000115D8, symSize: 0x8C }
  - { offset: 0x2C4D5, size: 0x8, addend: 0x0, symName: __ZNKSt16initializer_listIdE5beginB8ue170006Ev, symObjAddr: 0xF814, symBinAddr: 0x100011664, symSize: 0x18 }
  - { offset: 0x2C4FB, size: 0x8, addend: 0x0, symName: __ZNKSt16initializer_listIdE3endB8ue170006Ev, symObjAddr: 0xF82C, symBinAddr: 0x10001167C, symSize: 0x20 }
  - { offset: 0x2C521, size: 0x8, addend: 0x0, symName: __ZNSt3__128__exception_guard_exceptionsINS_6vectorIdNS_9allocatorIdEEE16__destroy_vectorEE10__completeB8ue170006Ev, symObjAddr: 0xF84C, symBinAddr: 0x10001169C, symSize: 0x1C }
  - { offset: 0x2C547, size: 0x8, addend: 0x0, symName: __ZNSt3__128__exception_guard_exceptionsINS_6vectorIdNS_9allocatorIdEEE16__destroy_vectorEED1B8ue170006Ev, symObjAddr: 0xF868, symBinAddr: 0x1000116B8, symSize: 0x2C }
  - { offset: 0x2C571, size: 0x8, addend: 0x0, symName: __ZNSt3__117__compressed_pairIPdNS_9allocatorIdEEEC2B8ue170006IDnNS_18__default_init_tagEEEOT_OT0_, symObjAddr: 0xF894, symBinAddr: 0x1000116E4, symSize: 0x40 }
  - { offset: 0x2C5C9, size: 0x8, addend: 0x0, symName: __ZNSt3__122__compressed_pair_elemIPdLi0ELb0EEC2B8ue170006IDnvEEOT_, symObjAddr: 0xF8D4, symBinAddr: 0x100011724, symSize: 0x1C }
  - { offset: 0x2C60B, size: 0x8, addend: 0x0, symName: __ZNSt3__122__compressed_pair_elemINS_9allocatorIdEELi1ELb1EEC2B8ue170006ENS_18__default_init_tagE, symObjAddr: 0xF8F0, symBinAddr: 0x100011740, symSize: 0x2C }
  - { offset: 0x2C640, size: 0x8, addend: 0x0, symName: __ZNSt3__19allocatorIdEC2B8ue170006Ev, symObjAddr: 0xF91C, symBinAddr: 0x10001176C, symSize: 0x2C }
  - { offset: 0x2C66A, size: 0x8, addend: 0x0, symName: __ZNSt3__116__non_trivial_ifILb1ENS_9allocatorIdEEEC2B8ue170006Ev, symObjAddr: 0xF948, symBinAddr: 0x100011798, symSize: 0x14 }
  - { offset: 0x2C694, size: 0x8, addend: 0x0, symName: __ZNSt3__128__exception_guard_exceptionsINS_6vectorIdNS_9allocatorIdEEE16__destroy_vectorEEC1B8ue170006ES5_, symObjAddr: 0xF95C, symBinAddr: 0x1000117AC, symSize: 0x34 }
  - { offset: 0x2C6CC, size: 0x8, addend: 0x0, symName: __ZNSt3__128__exception_guard_exceptionsINS_6vectorIdNS_9allocatorIdEEE16__destroy_vectorEEC2B8ue170006ES5_, symObjAddr: 0xF990, symBinAddr: 0x1000117E0, symSize: 0x24 }
  - { offset: 0x2C704, size: 0x8, addend: 0x0, symName: __ZNSt3__16vectorIdNS_9allocatorIdEEE16__destroy_vectorC2B8ue170006ERS3_, symObjAddr: 0xF9B4, symBinAddr: 0x100011804, symSize: 0x20 }
  - { offset: 0x2C73D, size: 0x8, addend: 0x0, symName: __ZNKSt3__16vectorIdNS_9allocatorIdEEE8max_sizeEv, symObjAddr: 0xF9D4, symBinAddr: 0x100011824, symSize: 0x60 }
  - { offset: 0x2C765, size: 0x8, addend: 0x0, symName: __ZNKSt3__16vectorIdNS_9allocatorIdEEE20__throw_length_errorB8ue170006Ev, symObjAddr: 0xFA34, symBinAddr: 0x100011884, symSize: 0x1C }
  - { offset: 0x2C78B, size: 0x8, addend: 0x0, symName: __ZNSt3__16vectorIdNS_9allocatorIdEEE7__allocB8ue170006Ev, symObjAddr: 0xFA90, symBinAddr: 0x1000118E0, symSize: 0x28 }
  - { offset: 0x2C7B1, size: 0x8, addend: 0x0, symName: __ZNSt3__16vectorIdNS_9allocatorIdEEE9__end_capB8ue170006Ev, symObjAddr: 0xFAB8, symBinAddr: 0x100011908, symSize: 0x28 }
  - { offset: 0x2C7D7, size: 0x8, addend: 0x0, symName: __ZNKSt3__16vectorIdNS_9allocatorIdEEE14__annotate_newB8ue170006Em, symObjAddr: 0xFAE0, symBinAddr: 0x100011930, symSize: 0xAC }
  - { offset: 0x2C817, size: 0x8, addend: 0x0, symName: __ZNSt3__116allocator_traitsINS_9allocatorIdEEE8max_sizeB8ue170006IS2_vEEmRKS2_, symObjAddr: 0xFB8C, symBinAddr: 0x1000119DC, symSize: 0x24 }
  - { offset: 0x2C845, size: 0x8, addend: 0x0, symName: __ZNKSt3__16vectorIdNS_9allocatorIdEEE7__allocB8ue170006Ev, symObjAddr: 0xFBB0, symBinAddr: 0x100011A00, symSize: 0x28 }
  - { offset: 0x2C86B, size: 0x8, addend: 0x0, symName: __ZNKSt3__19allocatorIdE8max_sizeB8ue170006Ev, symObjAddr: 0xFBD8, symBinAddr: 0x100011A28, symSize: 0x14 }
  - { offset: 0x2C891, size: 0x8, addend: 0x0, symName: __ZNKSt3__117__compressed_pairIPdNS_9allocatorIdEEE6secondB8ue170006Ev, symObjAddr: 0xFBEC, symBinAddr: 0x100011A3C, symSize: 0x24 }
  - { offset: 0x2C8B7, size: 0x8, addend: 0x0, symName: __ZNKSt3__122__compressed_pair_elemINS_9allocatorIdEELi1ELb1EE5__getB8ue170006Ev, symObjAddr: 0xFC10, symBinAddr: 0x100011A60, symSize: 0x14 }
  - { offset: 0x2C8DD, size: 0x8, addend: 0x0, symName: __ZNSt3__19allocatorIdE8allocateB8ue170006Em, symObjAddr: 0xFC24, symBinAddr: 0x100011A74, symSize: 0x58 }
  - { offset: 0x2C911, size: 0x8, addend: 0x0, symName: __ZNSt3__117__compressed_pairIPdNS_9allocatorIdEEE6secondB8ue170006Ev, symObjAddr: 0xFC7C, symBinAddr: 0x100011ACC, symSize: 0x24 }
  - { offset: 0x2C937, size: 0x8, addend: 0x0, symName: __ZNSt3__122__compressed_pair_elemINS_9allocatorIdEELi1ELb1EE5__getB8ue170006Ev, symObjAddr: 0xFCA0, symBinAddr: 0x100011AF0, symSize: 0x14 }
  - { offset: 0x2C95D, size: 0x8, addend: 0x0, symName: __ZNSt3__117__compressed_pairIPdNS_9allocatorIdEEE5firstB8ue170006Ev, symObjAddr: 0xFCB4, symBinAddr: 0x100011B04, symSize: 0x24 }
  - { offset: 0x2C983, size: 0x8, addend: 0x0, symName: __ZNSt3__122__compressed_pair_elemIPdLi0ELb0EE5__getB8ue170006Ev, symObjAddr: 0xFCD8, symBinAddr: 0x100011B28, symSize: 0x14 }
  - { offset: 0x2C9A9, size: 0x8, addend: 0x0, symName: __ZNKSt3__16vectorIdNS_9allocatorIdEEE31__annotate_contiguous_containerB8ue170006EPKvS5_S5_S5_, symObjAddr: 0xFCEC, symBinAddr: 0x100011B3C, symSize: 0x20 }
  - { offset: 0x2C9FB, size: 0x8, addend: 0x0, symName: __ZNKSt3__16vectorIdNS_9allocatorIdEEE4dataB8ue170006Ev, symObjAddr: 0xFD0C, symBinAddr: 0x100011B5C, symSize: 0x28 }
  - { offset: 0x2CA21, size: 0x8, addend: 0x0, symName: __ZNKSt3__16vectorIdNS_9allocatorIdEEE8capacityB8ue170006Ev, symObjAddr: 0xFD34, symBinAddr: 0x100011B84, symSize: 0x40 }
  - { offset: 0x2CA47, size: 0x8, addend: 0x0, symName: __ZNKSt3__16vectorIdNS_9allocatorIdEEE9__end_capB8ue170006Ev, symObjAddr: 0xFD88, symBinAddr: 0x100011BD8, symSize: 0x28 }
  - { offset: 0x2CA6D, size: 0x8, addend: 0x0, symName: __ZNKSt3__117__compressed_pairIPdNS_9allocatorIdEEE5firstB8ue170006Ev, symObjAddr: 0xFDB0, symBinAddr: 0x100011C00, symSize: 0x24 }
  - { offset: 0x2CA93, size: 0x8, addend: 0x0, symName: __ZNKSt3__122__compressed_pair_elemIPdLi0ELb0EE5__getB8ue170006Ev, symObjAddr: 0xFDD4, symBinAddr: 0x100011C24, symSize: 0x14 }
  - { offset: 0x2CAD5, size: 0x8, addend: 0x0, symName: __ZNSt3__16vectorIdNS_9allocatorIdEEE21_ConstructTransactionC1B8ue170006ERS3_m, symObjAddr: 0xFDE8, symBinAddr: 0x100011C38, symSize: 0x3C }
  - { offset: 0x2CB1D, size: 0x8, addend: 0x0, symName: __ZNSt3__16vectorIdNS_9allocatorIdEEE21_ConstructTransactionD1B8ue170006Ev, symObjAddr: 0xFEA4, symBinAddr: 0x100011CF4, symSize: 0x2C }
  - { offset: 0x2CB47, size: 0x8, addend: 0x0, symName: __ZNSt3__16vectorIdNS_9allocatorIdEEE21_ConstructTransactionC2B8ue170006ERS3_m, symObjAddr: 0xFED0, symBinAddr: 0x100011D20, symSize: 0x44 }
  - { offset: 0x2CBB2, size: 0x8, addend: 0x0, symName: __ZNSt3__14pairIPKdS2_EC1B8ue170006IS2_S2_LPv0EEEOT_OT0_, symObjAddr: 0x10068, symBinAddr: 0x100011EB8, symSize: 0x3C }
  - { offset: 0x2CC10, size: 0x8, addend: 0x0, symName: __ZNSt3__14pairIPKdS2_EC2B8ue170006IS2_S2_LPv0EEEOT_OT0_, symObjAddr: 0x100A4, symBinAddr: 0x100011EF4, symSize: 0x34 }
  - { offset: 0x2CC6E, size: 0x8, addend: 0x0, symName: __ZNSt3__118__unwrap_iter_implIPKdLb1EE8__unwrapB8ue170006ES2_, symObjAddr: 0x100D8, symBinAddr: 0x100011F28, symSize: 0x24 }
  - { offset: 0x2CCAE, size: 0x8, addend: 0x0, symName: __ZNKSt3__114__copy_trivialclB8ue170006IKddLi0EEENS_4pairIPT_PT0_EES5_S5_S7_, symObjAddr: 0x1028C, symBinAddr: 0x1000120DC, symSize: 0x48 }
  - { offset: 0x2CD22, size: 0x8, addend: 0x0, symName: __ZNSt3__14pairIPKdPdEC1B8ue170006IRS2_S3_LPv0EEEOT_OT0_, symObjAddr: 0x10454, symBinAddr: 0x1000122A4, symSize: 0x3C }
  - { offset: 0x2CD80, size: 0x8, addend: 0x0, symName: __ZNSt3__14pairIPKdPdEC2B8ue170006IRS2_S3_LPv0EEEOT_OT0_, symObjAddr: 0x10490, symBinAddr: 0x1000122E0, symSize: 0x34 }
  - { offset: 0x2CDDE, size: 0x8, addend: 0x0, symName: __ZNSt3__14pairIPKdPdEC1B8ue170006IS2_S3_LPv0EEEOT_OT0_, symObjAddr: 0x104C4, symBinAddr: 0x100012314, symSize: 0x3C }
  - { offset: 0x2CE3C, size: 0x8, addend: 0x0, symName: __ZNSt3__14pairIPKdPdEC2B8ue170006IS2_S3_LPv0EEEOT_OT0_, symObjAddr: 0x10500, symBinAddr: 0x100012350, symSize: 0x34 }
  - { offset: 0x2CE9A, size: 0x8, addend: 0x0, symName: __ZNSt3__118__unwrap_iter_implIPKdLb1EE8__rewrapB8ue170006ES2_S2_, symObjAddr: 0x10570, symBinAddr: 0x1000123C0, symSize: 0x50 }
  - { offset: 0x2CECB, size: 0x8, addend: 0x0, symName: __ZNSt3__118__unwrap_iter_implIPdLb1EE8__unwrapB8ue170006ES1_, symObjAddr: 0x105C0, symBinAddr: 0x100012410, symSize: 0x24 }
  - { offset: 0x2CEEE, size: 0x8, addend: 0x0, symName: __ZNSt3__118__unwrap_iter_implIPdLb1EE8__rewrapB8ue170006ES1_S1_, symObjAddr: 0x105E4, symBinAddr: 0x100012434, symSize: 0x50 }
  - { offset: 0x2CF1F, size: 0x8, addend: 0x0, symName: __ZNSt3__16vectorIdNS_9allocatorIdEEE21_ConstructTransactionD2B8ue170006Ev, symObjAddr: 0x10634, symBinAddr: 0x100012484, symSize: 0x20 }
  - { offset: 0x2CF49, size: 0x8, addend: 0x0, symName: __ZNSt3__128__exception_guard_exceptionsINS_6vectorIdNS_9allocatorIdEEE16__destroy_vectorEED2B8ue170006Ev, symObjAddr: 0x10654, symBinAddr: 0x1000124A4, symSize: 0x50 }
  - { offset: 0x2CF73, size: 0x8, addend: 0x0, symName: __ZNSt3__16vectorIdNS_9allocatorIdEEE16__destroy_vectorclB8ue170006Ev, symObjAddr: 0x106A4, symBinAddr: 0x1000124F4, symSize: 0x90 }
  - { offset: 0x2CF99, size: 0x8, addend: 0x0, symName: __ZNSt3__16vectorIdNS_9allocatorIdEEE7__clearB8ue170006Ev, symObjAddr: 0x10734, symBinAddr: 0x100012584, symSize: 0x28 }
  - { offset: 0x2CFBF, size: 0x8, addend: 0x0, symName: __ZNKSt3__16vectorIdNS_9allocatorIdEEE17__annotate_deleteB8ue170006Ev, symObjAddr: 0x1075C, symBinAddr: 0x1000125AC, symSize: 0xB8 }
  - { offset: 0x2CFE5, size: 0x8, addend: 0x0, symName: __ZNSt3__116allocator_traitsINS_9allocatorIdEEE10deallocateB8ue170006ERS2_Pdm, symObjAddr: 0x10814, symBinAddr: 0x100012664, symSize: 0x34 }
  - { offset: 0x2D027, size: 0x8, addend: 0x0, symName: __ZNSt3__16vectorIdNS_9allocatorIdEEE22__base_destruct_at_endB8ue170006EPd, symObjAddr: 0x10848, symBinAddr: 0x100012698, symSize: 0x8C }
  - { offset: 0x2D06B, size: 0x8, addend: 0x0, symName: __ZNSt3__116allocator_traitsINS_9allocatorIdEEE7destroyB8ue170006IdvEEvRS2_PT_, symObjAddr: 0x108D4, symBinAddr: 0x100012724, symSize: 0x2C }
  - { offset: 0x2D0A8, size: 0x8, addend: 0x0, symName: __ZNSt3__19allocatorIdE7destroyB8ue170006EPd, symObjAddr: 0x10900, symBinAddr: 0x100012750, symSize: 0x14 }
  - { offset: 0x2D0DC, size: 0x8, addend: 0x0, symName: __ZNKSt3__16vectorIdNS_9allocatorIdEEE4sizeB8ue170006Ev, symObjAddr: 0x10914, symBinAddr: 0x100012764, symSize: 0x28 }
  - { offset: 0x2D102, size: 0x8, addend: 0x0, symName: __ZNSt3__19allocatorIdE10deallocateB8ue170006EPdm, symObjAddr: 0x1093C, symBinAddr: 0x10001278C, symSize: 0x40 }
  - { offset: 0x2D144, size: 0x8, addend: 0x0, symName: __ZNSt3__16vectorINS_19normal_distributionIdEENS_9allocatorIS2_EEEC2B8ue170006Ev, symObjAddr: 0x1097C, symBinAddr: 0x1000127CC, symSize: 0x4C }
  - { offset: 0x2D16E, size: 0x8, addend: 0x0, symName: __ZNSt3__117__compressed_pairIPNS_19normal_distributionIdEENS_9allocatorIS2_EEEC1B8ue170006IDnNS_18__default_init_tagEEEOT_OT0_, symObjAddr: 0x109C8, symBinAddr: 0x100012818, symSize: 0x3C }
  - { offset: 0x2D1C6, size: 0x8, addend: 0x0, symName: __ZNSt3__117__compressed_pairIPNS_19normal_distributionIdEENS_9allocatorIS2_EEEC2B8ue170006IDnNS_18__default_init_tagEEEOT_OT0_, symObjAddr: 0x10A04, symBinAddr: 0x100012854, symSize: 0x40 }
  - { offset: 0x2D21E, size: 0x8, addend: 0x0, symName: __ZNSt3__122__compressed_pair_elemIPNS_19normal_distributionIdEELi0ELb0EEC2B8ue170006IDnvEEOT_, symObjAddr: 0x10A44, symBinAddr: 0x100012894, symSize: 0x1C }
  - { offset: 0x2D260, size: 0x8, addend: 0x0, symName: __ZNSt3__122__compressed_pair_elemINS_9allocatorINS_19normal_distributionIdEEEELi1ELb1EEC2B8ue170006ENS_18__default_init_tagE, symObjAddr: 0x10A60, symBinAddr: 0x1000128B0, symSize: 0x2C }
  - { offset: 0x2D295, size: 0x8, addend: 0x0, symName: __ZNSt3__19allocatorINS_19normal_distributionIdEEEC2B8ue170006Ev, symObjAddr: 0x10A8C, symBinAddr: 0x1000128DC, symSize: 0x2C }
  - { offset: 0x2D2BF, size: 0x8, addend: 0x0, symName: __ZNSt3__116__non_trivial_ifILb1ENS_9allocatorINS_19normal_distributionIdEEEEEC2B8ue170006Ev, symObjAddr: 0x10AB8, symBinAddr: 0x100012908, symSize: 0x14 }
  - { offset: 0x2D2E9, size: 0x8, addend: 0x0, symName: __ZNSt3__16vectorIdNS_9allocatorIdEEE11__make_iterB8ue170006EPd, symObjAddr: 0x10ACC, symBinAddr: 0x10001291C, symSize: 0x30 }
  - { offset: 0x2D31E, size: 0x8, addend: 0x0, symName: __ZNSt3__111__wrap_iterIPdEC1B8ue170006ES1_, symObjAddr: 0x10AFC, symBinAddr: 0x10001294C, symSize: 0x34 }
  - { offset: 0x2D356, size: 0x8, addend: 0x0, symName: __ZNSt3__111__wrap_iterIPdEC2B8ue170006ES1_, symObjAddr: 0x10B30, symBinAddr: 0x100012980, symSize: 0x20 }
  - { offset: 0x2D38E, size: 0x8, addend: 0x0, symName: __ZNKSt3__111__wrap_iterIPdE4baseB8ue170006Ev, symObjAddr: 0x10B98, symBinAddr: 0x1000129E8, symSize: 0x18 }
  - { offset: 0x2D3B4, size: 0x8, addend: 0x0, symName: __ZNSt3__16vectorINS_19normal_distributionIdEENS_9allocatorIS2_EEE9__end_capB8ue170006Ev, symObjAddr: 0x10BB0, symBinAddr: 0x100012A00, symSize: 0x28 }
  - { offset: 0x2D3DA, size: 0x8, addend: 0x0, symName: __ZNSt3__16vectorINS_19normal_distributionIdEENS_9allocatorIS2_EEE22__construct_one_at_endB8ue170006IJRdS7_EEEvDpOT_, symObjAddr: 0x10BD8, symBinAddr: 0x100012A28, symSize: 0x98 }
  - { offset: 0x2D43D, size: 0x8, addend: 0x0, symName: __ZNSt3__16vectorINS_19normal_distributionIdEENS_9allocatorIS2_EEE24__emplace_back_slow_pathIJRdS7_EEEvDpOT_, symObjAddr: 0x10C70, symBinAddr: 0x100012AC0, symSize: 0xE0 }
  - { offset: 0x2D4B1, size: 0x8, addend: 0x0, symName: __ZNSt3__16vectorINS_19normal_distributionIdEENS_9allocatorIS2_EEE4backB8ue170006Ev, symObjAddr: 0x10D50, symBinAddr: 0x100012BA0, symSize: 0x1C }
  - { offset: 0x2D4D7, size: 0x8, addend: 0x0, symName: __ZNSt3__117__compressed_pairIPNS_19normal_distributionIdEENS_9allocatorIS2_EEE5firstB8ue170006Ev, symObjAddr: 0x10D6C, symBinAddr: 0x100012BBC, symSize: 0x24 }
  - { offset: 0x2D4FD, size: 0x8, addend: 0x0, symName: __ZNSt3__122__compressed_pair_elemIPNS_19normal_distributionIdEELi0ELb0EE5__getB8ue170006Ev, symObjAddr: 0x10D90, symBinAddr: 0x100012BE0, symSize: 0x14 }
  - { offset: 0x2D53F, size: 0x8, addend: 0x0, symName: __ZNSt3__16vectorINS_19normal_distributionIdEENS_9allocatorIS2_EEE21_ConstructTransactionC1B8ue170006ERS5_m, symObjAddr: 0x10DA4, symBinAddr: 0x100012BF4, symSize: 0x3C }
  - { offset: 0x2D587, size: 0x8, addend: 0x0, symName: __ZNSt3__116allocator_traitsINS_9allocatorINS_19normal_distributionIdEEEEE9constructB8ue170006IS3_JRdS7_EvEEvRS4_PT_DpOT0_, symObjAddr: 0x10DE0, symBinAddr: 0x100012C30, symSize: 0x3C }
  - { offset: 0x2D5F2, size: 0x8, addend: 0x0, symName: __ZNSt3__16vectorINS_19normal_distributionIdEENS_9allocatorIS2_EEE7__allocB8ue170006Ev, symObjAddr: 0x10E1C, symBinAddr: 0x100012C6C, symSize: 0x28 }
  - { offset: 0x2D618, size: 0x8, addend: 0x0, symName: __ZNSt3__16vectorINS_19normal_distributionIdEENS_9allocatorIS2_EEE21_ConstructTransactionD1B8ue170006Ev, symObjAddr: 0x10E58, symBinAddr: 0x100012CA8, symSize: 0x2C }
  - { offset: 0x2D642, size: 0x8, addend: 0x0, symName: __ZNSt3__16vectorINS_19normal_distributionIdEENS_9allocatorIS2_EEE21_ConstructTransactionC2B8ue170006ERS5_m, symObjAddr: 0x10E84, symBinAddr: 0x100012CD4, symSize: 0x44 }
  - { offset: 0x2D68A, size: 0x8, addend: 0x0, symName: __ZNSt3__19allocatorINS_19normal_distributionIdEEE9constructB8ue170006IS2_JRdS5_EEEvPT_DpOT0_, symObjAddr: 0x10EC8, symBinAddr: 0x100012D18, symSize: 0x40 }
  - { offset: 0x2D6F3, size: 0x8, addend: 0x0, symName: __ZNSt3__117__compressed_pairIPNS_19normal_distributionIdEENS_9allocatorIS2_EEE6secondB8ue170006Ev, symObjAddr: 0x10F08, symBinAddr: 0x100012D58, symSize: 0x24 }
  - { offset: 0x2D719, size: 0x8, addend: 0x0, symName: __ZNSt3__122__compressed_pair_elemINS_9allocatorINS_19normal_distributionIdEEEELi1ELb1EE5__getB8ue170006Ev, symObjAddr: 0x10F2C, symBinAddr: 0x100012D7C, symSize: 0x14 }
  - { offset: 0x2D73F, size: 0x8, addend: 0x0, symName: __ZNSt3__16vectorINS_19normal_distributionIdEENS_9allocatorIS2_EEE21_ConstructTransactionD2B8ue170006Ev, symObjAddr: 0x10F40, symBinAddr: 0x100012D90, symSize: 0x20 }
  - { offset: 0x2D769, size: 0x8, addend: 0x0, symName: __ZNKSt3__16vectorINS_19normal_distributionIdEENS_9allocatorIS2_EEE11__recommendB8ue170006Em, symObjAddr: 0x10F60, symBinAddr: 0x100012DB0, symSize: 0xB4 }
  - { offset: 0x2D7BE, size: 0x8, addend: 0x0, symName: __ZNSt3__114__split_bufferINS_19normal_distributionIdEERNS_9allocatorIS2_EEEC1EmmS5_, symObjAddr: 0x11014, symBinAddr: 0x100012E64, symSize: 0x44 }
  - { offset: 0x2D814, size: 0x8, addend: 0x0, symName: __ZNSt3__114__split_bufferINS_19normal_distributionIdEERNS_9allocatorIS2_EEED1Ev, symObjAddr: 0x11168, symBinAddr: 0x100012FB8, symSize: 0x2C }
  - { offset: 0x2D840, size: 0x8, addend: 0x0, symName: __ZNKSt3__16vectorINS_19normal_distributionIdEENS_9allocatorIS2_EEE8max_sizeEv, symObjAddr: 0x11194, symBinAddr: 0x100012FE4, symSize: 0x60 }
  - { offset: 0x2D868, size: 0x8, addend: 0x0, symName: __ZNKSt3__16vectorINS_19normal_distributionIdEENS_9allocatorIS2_EEE20__throw_length_errorB8ue170006Ev, symObjAddr: 0x111F4, symBinAddr: 0x100013044, symSize: 0x1C }
  - { offset: 0x2D88E, size: 0x8, addend: 0x0, symName: __ZNKSt3__16vectorINS_19normal_distributionIdEENS_9allocatorIS2_EEE8capacityB8ue170006Ev, symObjAddr: 0x11210, symBinAddr: 0x100013060, symSize: 0x40 }
  - { offset: 0x2D8BF, size: 0x8, addend: 0x0, symName: __ZNSt3__116allocator_traitsINS_9allocatorINS_19normal_distributionIdEEEEE8max_sizeB8ue170006IS4_vEEmRKS4_, symObjAddr: 0x11250, symBinAddr: 0x1000130A0, symSize: 0x24 }
  - { offset: 0x2D8ED, size: 0x8, addend: 0x0, symName: __ZNKSt3__16vectorINS_19normal_distributionIdEENS_9allocatorIS2_EEE7__allocB8ue170006Ev, symObjAddr: 0x11274, symBinAddr: 0x1000130C4, symSize: 0x28 }
  - { offset: 0x2D913, size: 0x8, addend: 0x0, symName: __ZNKSt3__19allocatorINS_19normal_distributionIdEEE8max_sizeB8ue170006Ev, symObjAddr: 0x1129C, symBinAddr: 0x1000130EC, symSize: 0x14 }
  - { offset: 0x2D939, size: 0x8, addend: 0x0, symName: __ZNKSt3__117__compressed_pairIPNS_19normal_distributionIdEENS_9allocatorIS2_EEE6secondB8ue170006Ev, symObjAddr: 0x112B0, symBinAddr: 0x100013100, symSize: 0x24 }
  - { offset: 0x2D95F, size: 0x8, addend: 0x0, symName: __ZNKSt3__122__compressed_pair_elemINS_9allocatorINS_19normal_distributionIdEEEELi1ELb1EE5__getB8ue170006Ev, symObjAddr: 0x112D4, symBinAddr: 0x100013124, symSize: 0x14 }
  - { offset: 0x2D985, size: 0x8, addend: 0x0, symName: __ZNKSt3__16vectorINS_19normal_distributionIdEENS_9allocatorIS2_EEE9__end_capB8ue170006Ev, symObjAddr: 0x112E8, symBinAddr: 0x100013138, symSize: 0x28 }
  - { offset: 0x2D9AB, size: 0x8, addend: 0x0, symName: __ZNKSt3__117__compressed_pairIPNS_19normal_distributionIdEENS_9allocatorIS2_EEE5firstB8ue170006Ev, symObjAddr: 0x11310, symBinAddr: 0x100013160, symSize: 0x24 }
  - { offset: 0x2D9D1, size: 0x8, addend: 0x0, symName: __ZNKSt3__122__compressed_pair_elemIPNS_19normal_distributionIdEELi0ELb0EE5__getB8ue170006Ev, symObjAddr: 0x11334, symBinAddr: 0x100013184, symSize: 0x14 }
  - { offset: 0x2D9F7, size: 0x8, addend: 0x0, symName: __ZNSt3__114__split_bufferINS_19normal_distributionIdEERNS_9allocatorIS2_EEEC2EmmS5_, symObjAddr: 0x11348, symBinAddr: 0x100013198, symSize: 0xD4 }
  - { offset: 0x2DA6A, size: 0x8, addend: 0x0, symName: __ZNSt3__117__compressed_pairIPNS_19normal_distributionIdEERNS_9allocatorIS2_EEEC1B8ue170006IDnS6_EEOT_OT0_, symObjAddr: 0x1141C, symBinAddr: 0x10001326C, symSize: 0x3C }
  - { offset: 0x2DAC2, size: 0x8, addend: 0x0, symName: __ZNSt3__114__split_bufferINS_19normal_distributionIdEERNS_9allocatorIS2_EEE7__allocB8ue170006Ev, symObjAddr: 0x11498, symBinAddr: 0x1000132E8, symSize: 0x28 }
  - { offset: 0x2DAE8, size: 0x8, addend: 0x0, symName: __ZNSt3__114__split_bufferINS_19normal_distributionIdEERNS_9allocatorIS2_EEE9__end_capB8ue170006Ev, symObjAddr: 0x114C0, symBinAddr: 0x100013310, symSize: 0x28 }
  - { offset: 0x2DB0E, size: 0x8, addend: 0x0, symName: __ZNSt3__117__compressed_pairIPNS_19normal_distributionIdEERNS_9allocatorIS2_EEEC2B8ue170006IDnS6_EEOT_OT0_, symObjAddr: 0x114E8, symBinAddr: 0x100013338, symSize: 0x48 }
  - { offset: 0x2DB66, size: 0x8, addend: 0x0, symName: __ZNSt3__122__compressed_pair_elemIRNS_9allocatorINS_19normal_distributionIdEEEELi1ELb0EEC2B8ue170006IS5_vEEOT_, symObjAddr: 0x11530, symBinAddr: 0x100013380, symSize: 0x20 }
  - { offset: 0x2DBA8, size: 0x8, addend: 0x0, symName: __ZNSt3__19allocatorINS_19normal_distributionIdEEE8allocateB8ue170006Em, symObjAddr: 0x11550, symBinAddr: 0x1000133A0, symSize: 0x58 }
  - { offset: 0x2DBDC, size: 0x8, addend: 0x0, symName: __ZNSt3__117__compressed_pairIPNS_19normal_distributionIdEERNS_9allocatorIS2_EEE6secondB8ue170006Ev, symObjAddr: 0x115A8, symBinAddr: 0x1000133F8, symSize: 0x28 }
  - { offset: 0x2DC02, size: 0x8, addend: 0x0, symName: __ZNSt3__122__compressed_pair_elemIRNS_9allocatorINS_19normal_distributionIdEEEELi1ELb0EE5__getB8ue170006Ev, symObjAddr: 0x115D0, symBinAddr: 0x100013420, symSize: 0x18 }
  - { offset: 0x2DC28, size: 0x8, addend: 0x0, symName: __ZNSt3__117__compressed_pairIPNS_19normal_distributionIdEERNS_9allocatorIS2_EEE5firstB8ue170006Ev, symObjAddr: 0x115E8, symBinAddr: 0x100013438, symSize: 0x24 }
  - { offset: 0x2DC4E, size: 0x8, addend: 0x0, symName: __ZNKSt3__16vectorINS_19normal_distributionIdEENS_9allocatorIS2_EEE17__annotate_deleteB8ue170006Ev, symObjAddr: 0x1160C, symBinAddr: 0x10001345C, symSize: 0xB8 }
  - { offset: 0x2DC74, size: 0x8, addend: 0x0, symName: __ZNSt3__116reverse_iteratorIPNS_19normal_distributionIdEEEC1B8ue170006ES3_, symObjAddr: 0x1173C, symBinAddr: 0x10001358C, symSize: 0x34 }
  - { offset: 0x2DCAC, size: 0x8, addend: 0x0, symName: __ZNKSt3__116reverse_iteratorIPNS_19normal_distributionIdEEE4baseB8ue170006Ev, symObjAddr: 0x11770, symBinAddr: 0x1000135C0, symSize: 0x18 }
  - { offset: 0x2DCD2, size: 0x8, addend: 0x0, symName: __ZNKSt3__16vectorINS_19normal_distributionIdEENS_9allocatorIS2_EEE14__annotate_newB8ue170006Em, symObjAddr: 0x117C4, symBinAddr: 0x100013614, symSize: 0xAC }
  - { offset: 0x2DD07, size: 0x8, addend: 0x0, symName: __ZNKSt3__16vectorINS_19normal_distributionIdEENS_9allocatorIS2_EEE31__annotate_contiguous_containerB8ue170006EPKvS7_S7_S7_, symObjAddr: 0x11870, symBinAddr: 0x1000136C0, symSize: 0x20 }
  - { offset: 0x2DD59, size: 0x8, addend: 0x0, symName: __ZNKSt3__16vectorINS_19normal_distributionIdEENS_9allocatorIS2_EEE4dataB8ue170006Ev, symObjAddr: 0x11890, symBinAddr: 0x1000136E0, symSize: 0x28 }
  - { offset: 0x2DD9C, size: 0x8, addend: 0x0, symName: __ZNKSt3__111__move_loopINS_17_ClassicAlgPolicyEEclB8ue170006INS_16reverse_iteratorIPNS_19normal_distributionIdEEEES8_S8_EENS_4pairIT_T1_EESA_T0_SB_, symObjAddr: 0x11BA8, symBinAddr: 0x1000139F8, symSize: 0xA8 }
  - { offset: 0x2DE0D, size: 0x8, addend: 0x0, symName: __ZNSt3__18_IterOpsINS_17_ClassicAlgPolicyEE11__iter_moveB8ue170006IRNS_16reverse_iteratorIPNS_19normal_distributionIdEEEEEENS_9enable_ifIXsr12is_referenceIDTdeclsr3stdE7declvalIRT_EEEEE5valueEDTclsr3stdE4movedeclsr3stdE7declvalISC_EEEEE4typeEOSB_, symObjAddr: 0x11DE4, symBinAddr: 0x100013C34, symSize: 0x28 }
  - { offset: 0x2DE39, size: 0x8, addend: 0x0, symName: __ZNKSt3__116reverse_iteratorIPNS_19normal_distributionIdEEEdeB8ue170006Ev, symObjAddr: 0x11E0C, symBinAddr: 0x100013C5C, symSize: 0x28 }
  - { offset: 0x2DE6D, size: 0x8, addend: 0x0, symName: __ZNSt3__116reverse_iteratorIPNS_19normal_distributionIdEEEppB8ue170006Ev, symObjAddr: 0x11E34, symBinAddr: 0x100013C84, symSize: 0x20 }
  - { offset: 0x2DE93, size: 0x8, addend: 0x0, symName: __ZNSt3__18_IterOpsINS_17_ClassicAlgPolicyEE25__validate_iter_referenceB8ue170006IRNS_16reverse_iteratorIPNS_19normal_distributionIdEEEEEEvv, symObjAddr: 0x11E54, symBinAddr: 0x100013CA4, symSize: 0x4 }
  - { offset: 0x2DEB1, size: 0x8, addend: 0x0, symName: __ZNSt3__118__unwrap_iter_implINS_16reverse_iteratorIPNS_19normal_distributionIdEEEELb0EE8__unwrapB8ue170006ES5_, symObjAddr: 0x11E58, symBinAddr: 0x100013CA8, symSize: 0x24 }
  - { offset: 0x2DEDA, size: 0x8, addend: 0x0, symName: __ZNSt3__14pairINS_16reverse_iteratorIPNS_19normal_distributionIdEEEES5_EC1B8ue170006IS5_S5_LPv0EEEOT_OT0_, symObjAddr: 0x11E7C, symBinAddr: 0x100013CCC, symSize: 0x3C }
  - { offset: 0x2DF38, size: 0x8, addend: 0x0, symName: __ZNSt3__14pairINS_16reverse_iteratorIPNS_19normal_distributionIdEEEES5_EC2B8ue170006IS5_S5_LPv0EEEOT_OT0_, symObjAddr: 0x11EB8, symBinAddr: 0x100013D08, symSize: 0x34 }
  - { offset: 0x2DF96, size: 0x8, addend: 0x0, symName: __ZNSt3__118__unwrap_iter_implINS_16reverse_iteratorIPNS_19normal_distributionIdEEEELb0EE8__rewrapB8ue170006ES5_S5_, symObjAddr: 0x11EEC, symBinAddr: 0x100013D3C, symSize: 0x2C }
  - { offset: 0x2DFC4, size: 0x8, addend: 0x0, symName: __ZNSt3__116reverse_iteratorIPNS_19normal_distributionIdEEEC2B8ue170006ES3_, symObjAddr: 0x11F18, symBinAddr: 0x100013D68, symSize: 0x28 }
  - { offset: 0x2DFFC, size: 0x8, addend: 0x0, symName: __ZNSt3__114__split_bufferINS_19normal_distributionIdEERNS_9allocatorIS2_EEED2Ev, symObjAddr: 0x11F40, symBinAddr: 0x100013D90, symSize: 0x8C }
  - { offset: 0x2E028, size: 0x8, addend: 0x0, symName: __ZNSt3__114__split_bufferINS_19normal_distributionIdEERNS_9allocatorIS2_EEE5clearB8ue170006Ev, symObjAddr: 0x11FCC, symBinAddr: 0x100013E1C, symSize: 0x28 }
  - { offset: 0x2E04E, size: 0x8, addend: 0x0, symName: __ZNSt3__116allocator_traitsINS_9allocatorINS_19normal_distributionIdEEEEE10deallocateB8ue170006ERS4_PS3_m, symObjAddr: 0x11FF4, symBinAddr: 0x100013E44, symSize: 0x34 }
  - { offset: 0x2E090, size: 0x8, addend: 0x0, symName: __ZNKSt3__114__split_bufferINS_19normal_distributionIdEERNS_9allocatorIS2_EEE8capacityB8ue170006Ev, symObjAddr: 0x12028, symBinAddr: 0x100013E78, symSize: 0x40 }
  - { offset: 0x2E0B6, size: 0x8, addend: 0x0, symName: __ZNSt3__114__split_bufferINS_19normal_distributionIdEERNS_9allocatorIS2_EEE17__destruct_at_endB8ue170006EPS2_, symObjAddr: 0x12068, symBinAddr: 0x100013EB8, symSize: 0x2C }
  - { offset: 0x2E0EA, size: 0x8, addend: 0x0, symName: __ZNSt3__114__split_bufferINS_19normal_distributionIdEERNS_9allocatorIS2_EEE17__destruct_at_endB8ue170006EPS2_NS_17integral_constantIbLb0EEE, symObjAddr: 0x12094, symBinAddr: 0x100013EE4, symSize: 0x80 }
  - { offset: 0x2E12B, size: 0x8, addend: 0x0, symName: __ZNSt3__116allocator_traitsINS_9allocatorINS_19normal_distributionIdEEEEE7destroyB8ue170006IS3_vEEvRS4_PT_, symObjAddr: 0x12114, symBinAddr: 0x100013F64, symSize: 0x2C }
  - { offset: 0x2E168, size: 0x8, addend: 0x0, symName: __ZNSt3__19allocatorINS_19normal_distributionIdEEE7destroyB8ue170006EPS2_, symObjAddr: 0x12140, symBinAddr: 0x100013F90, symSize: 0x14 }
  - { offset: 0x2E19C, size: 0x8, addend: 0x0, symName: __ZNSt3__19allocatorINS_19normal_distributionIdEEE10deallocateB8ue170006EPS2_m, symObjAddr: 0x12154, symBinAddr: 0x100013FA4, symSize: 0x40 }
  - { offset: 0x2E1DE, size: 0x8, addend: 0x0, symName: __ZNKSt3__114__split_bufferINS_19normal_distributionIdEERNS_9allocatorIS2_EEE9__end_capB8ue170006Ev, symObjAddr: 0x12194, symBinAddr: 0x100013FE4, symSize: 0x28 }
  - { offset: 0x2E204, size: 0x8, addend: 0x0, symName: __ZNKSt3__117__compressed_pairIPNS_19normal_distributionIdEERNS_9allocatorIS2_EEE5firstB8ue170006Ev, symObjAddr: 0x121BC, symBinAddr: 0x10001400C, symSize: 0x24 }
  - { offset: 0x2E22A, size: 0x8, addend: 0x0, symName: __ZNSt3__124uniform_int_distributionImEC2B8ue170006Emm, symObjAddr: 0x121E0, symBinAddr: 0x100014030, symSize: 0x3C }
  - { offset: 0x2E270, size: 0x8, addend: 0x0, symName: __ZNSt3__124uniform_int_distributionImE10param_typeC1B8ue170006Emm, symObjAddr: 0x1221C, symBinAddr: 0x10001406C, symSize: 0x3C }
  - { offset: 0x2E2B6, size: 0x8, addend: 0x0, symName: __ZNSt3__124uniform_int_distributionImE10param_typeC2B8ue170006Emm, symObjAddr: 0x12258, symBinAddr: 0x1000140A8, symSize: 0x2C }
  - { offset: 0x2E2FC, size: 0x8, addend: 0x0, symName: __ZNKSt3__124uniform_int_distributionImE10param_type1bB8ue170006Ev, symObjAddr: 0x123F8, symBinAddr: 0x100014248, symSize: 0x18 }
  - { offset: 0x2E322, size: 0x8, addend: 0x0, symName: __ZNKSt3__124uniform_int_distributionImE10param_type1aB8ue170006Ev, symObjAddr: 0x12410, symBinAddr: 0x100014260, symSize: 0x18 }
  - { offset: 0x2E348, size: 0x8, addend: 0x0, symName: __ZNSt3__125__independent_bits_engineINS_23mersenne_twister_engineIjLm32ELm624ELm397ELm31ELj2567483615ELm11ELj4294967295ELm7ELj2636928640ELm15ELj4022730752ELm18ELj1812433253EEEmEC1ERS2_m, symObjAddr: 0x12428, symBinAddr: 0x100014278, symSize: 0x3C }
  - { offset: 0x2E38F, size: 0x8, addend: 0x0, symName: __ZNSt3__125__independent_bits_engineINS_23mersenne_twister_engineIjLm32ELm624ELm397ELm31ELj2567483615ELm11ELj4294967295ELm7ELj2636928640ELm15ELj4022730752ELm18ELj1812433253EEEmEclB8ue170006Ev, symObjAddr: 0x12464, symBinAddr: 0x1000142B4, symSize: 0x24 }
  - { offset: 0x2E3B5, size: 0x8, addend: 0x0, symName: __ZNSt3__114numeric_limitsImE3maxB8ue170006Ev, symObjAddr: 0x124DC, symBinAddr: 0x10001432C, symSize: 0x14 }
  - { offset: 0x2E3C9, size: 0x8, addend: 0x0, symName: __ZNSt3__125__independent_bits_engineINS_23mersenne_twister_engineIjLm32ELm624ELm397ELm31ELj2567483615ELm11ELj4294967295ELm7ELj2636928640ELm15ELj4022730752ELm18ELj1812433253EEEmEC2ERS2_m, symObjAddr: 0x124F0, symBinAddr: 0x100014340, symSize: 0x264 }
  - { offset: 0x2E410, size: 0x8, addend: 0x0, symName: __ZNSt3__125__independent_bits_engineINS_23mersenne_twister_engineIjLm32ELm624ELm397ELm31ELj2567483615ELm11ELj4294967295ELm7ELj2636928640ELm15ELj4022730752ELm18ELj1812433253EEEmE6__evalENS_17integral_constantIbLb1EEE, symObjAddr: 0x12754, symBinAddr: 0x1000145A4, symSize: 0x1F8 }
  - { offset: 0x2E4CE, size: 0x8, addend: 0x0, symName: __ZNSt3__123__libcpp_numeric_limitsImLb1EE3maxB8ue170006Ev, symObjAddr: 0x12968, symBinAddr: 0x1000147B8, symSize: 0x8 }
  - { offset: 0x2E4E2, size: 0x8, addend: 0x0, symName: __ZNSt3__16vectorINS_19normal_distributionIdEENS_9allocatorIS2_EEED2B8ue170006Ev, symObjAddr: 0x12970, symBinAddr: 0x1000147C0, symSize: 0x44 }
  - { offset: 0x2E50C, size: 0x8, addend: 0x0, symName: __ZNSt3__16vectorINS_19normal_distributionIdEENS_9allocatorIS2_EEE16__destroy_vectorC1B8ue170006ERS5_, symObjAddr: 0x129B4, symBinAddr: 0x100014804, symSize: 0x34 }
  - { offset: 0x2E545, size: 0x8, addend: 0x0, symName: __ZNSt3__16vectorINS_19normal_distributionIdEENS_9allocatorIS2_EEE16__destroy_vectorclB8ue170006Ev, symObjAddr: 0x129E8, symBinAddr: 0x100014838, symSize: 0x90 }
  - { offset: 0x2E56B, size: 0x8, addend: 0x0, symName: __ZNSt3__16vectorINS_19normal_distributionIdEENS_9allocatorIS2_EEE16__destroy_vectorC2B8ue170006ERS5_, symObjAddr: 0x12A78, symBinAddr: 0x1000148C8, symSize: 0x20 }
  - { offset: 0x2E5A4, size: 0x8, addend: 0x0, symName: __ZNSt3__16vectorINS_19normal_distributionIdEENS_9allocatorIS2_EEE7__clearB8ue170006Ev, symObjAddr: 0x12A98, symBinAddr: 0x1000148E8, symSize: 0x28 }
  - { offset: 0x2E5CA, size: 0x8, addend: 0x0, symName: __ZNSt3__16vectorINS_19normal_distributionIdEENS_9allocatorIS2_EEE22__base_destruct_at_endB8ue170006EPS2_, symObjAddr: 0x12AC0, symBinAddr: 0x100014910, symSize: 0x8C }
  - { offset: 0x2E60E, size: 0x8, addend: 0x0, symName: __ZNSt3__16vectorIdNS_9allocatorIdEEED2B8ue170006Ev, symObjAddr: 0x12B4C, symBinAddr: 0x10001499C, symSize: 0x40 }
  - { offset: 0x2E638, size: 0x8, addend: 0x0, symName: __ZNK13LinearProbingclEiii, symObjAddr: 0x12B8C, symBinAddr: 0x1000149DC, symSize: 0x54 }
  - { offset: 0x2E688, size: 0x8, addend: 0x0, symName: __ZNSt3__16vectorINS_8optionalIiEENS_9allocatorIS2_EEEixB8ue170006Em, symObjAddr: 0x12BE0, symBinAddr: 0x100014A30, symSize: 0x24 }
  - { offset: 0x2E6BF, size: 0x8, addend: 0x0, symName: __ZNKSt3__123__optional_storage_baseIiLb0EE9has_valueB8ue170006Ev, symObjAddr: 0x12C04, symBinAddr: 0x100014A54, symSize: 0x1C }
  - { offset: 0x2E6E5, size: 0x8, addend: 0x0, symName: __ZNSt3__18optionalIiEC1B8ue170006IRiLi0EEEOT_, symObjAddr: 0x12C20, symBinAddr: 0x100014A70, symSize: 0x34 }
  - { offset: 0x2E72D, size: 0x8, addend: 0x0, symName: __ZNRSt3__18optionalIiE5valueB8ue170006Ev, symObjAddr: 0x12C54, symBinAddr: 0x100014AA4, symSize: 0x3C }
  - { offset: 0x2E753, size: 0x8, addend: 0x0, symName: __ZNKSt3__18functionIFiiiEEclEii, symObjAddr: 0x12C90, symBinAddr: 0x100014AE0, symSize: 0x3C }
  - { offset: 0x2E799, size: 0x8, addend: 0x0, symName: __ZNKSt3__110__function12__value_funcIFiiiEEclB8ue170006EOiS4_, symObjAddr: 0x12CCC, symBinAddr: 0x100014B1C, symSize: 0x60 }
  - { offset: 0x2E7E3, size: 0x8, addend: 0x0, symName: __ZNSt3__117bad_function_callC1Ev, symObjAddr: 0x12D64, symBinAddr: 0x100014BB4, symSize: 0x2C }
  - { offset: 0x2E80F, size: 0x8, addend: 0x0, symName: __ZNSt3__117bad_function_callD1Ev, symObjAddr: 0x12D90, symBinAddr: 0x100014BE0, symSize: 0x2C }
  - { offset: 0x2E839, size: 0x8, addend: 0x0, symName: __ZNSt3__117bad_function_callC2Ev, symObjAddr: 0x12DBC, symBinAddr: 0x100014C0C, symSize: 0x3C }
  - { offset: 0x2E865, size: 0x8, addend: 0x0, symName: __ZNSt9exceptionC2B8ue170006Ev, symObjAddr: 0x12DF8, symBinAddr: 0x100014C48, symSize: 0x24 }
  - { offset: 0x2E88F, size: 0x8, addend: 0x0, symName: __ZNSt3__117bad_function_callD0Ev, symObjAddr: 0x12E1C, symBinAddr: 0x100014C6C, symSize: 0x30 }
  - { offset: 0x2E8B9, size: 0x8, addend: 0x0, symName: __ZNSt3__117bad_function_callD2Ev, symObjAddr: 0x12E4C, symBinAddr: 0x100014C9C, symSize: 0x2C }
  - { offset: 0x2E8E3, size: 0x8, addend: 0x0, symName: __ZNSt3__18optionalIiEC2B8ue170006IRiLi0EEEOT_, symObjAddr: 0x12E78, symBinAddr: 0x100014CC8, symSize: 0x34 }
  - { offset: 0x2E92B, size: 0x8, addend: 0x0, symName: __ZNSt3__127__optional_move_assign_baseIiLb1EECI2NS_24__optional_destruct_baseIiLb1EEEIJRiEEENS_10in_place_tEDpOT_, symObjAddr: 0x12EAC, symBinAddr: 0x100014CFC, symSize: 0x34 }
  - { offset: 0x2E96A, size: 0x8, addend: 0x0, symName: __ZNSt3__127__optional_copy_assign_baseIiLb1EECI2NS_24__optional_destruct_baseIiLb1EEEIJRiEEENS_10in_place_tEDpOT_, symObjAddr: 0x12EE0, symBinAddr: 0x100014D30, symSize: 0x34 }
  - { offset: 0x2E9A9, size: 0x8, addend: 0x0, symName: __ZNSt3__120__optional_move_baseIiLb1EECI2NS_24__optional_destruct_baseIiLb1EEEIJRiEEENS_10in_place_tEDpOT_, symObjAddr: 0x12F14, symBinAddr: 0x100014D64, symSize: 0x34 }
  - { offset: 0x2E9E8, size: 0x8, addend: 0x0, symName: __ZNSt3__120__optional_copy_baseIiLb1EECI2NS_24__optional_destruct_baseIiLb1EEEIJRiEEENS_10in_place_tEDpOT_, symObjAddr: 0x12F48, symBinAddr: 0x100014D98, symSize: 0x34 }
  - { offset: 0x2EA27, size: 0x8, addend: 0x0, symName: __ZNSt3__123__optional_storage_baseIiLb0EECI2NS_24__optional_destruct_baseIiLb1EEEIJRiEEENS_10in_place_tEDpOT_, symObjAddr: 0x12F7C, symBinAddr: 0x100014DCC, symSize: 0x34 }
  - { offset: 0x2EA66, size: 0x8, addend: 0x0, symName: __ZNSt3__124__optional_destruct_baseIiLb1EEC2B8ue170006IJRiEEENS_10in_place_tEDpOT_, symObjAddr: 0x12FB0, symBinAddr: 0x100014E00, symSize: 0x2C }
  - { offset: 0x2EAB5, size: 0x8, addend: 0x0, symName: __ZNRSt3__123__optional_storage_baseIiLb0EE5__getB8ue170006Ev, symObjAddr: 0x13014, symBinAddr: 0x100014E64, symSize: 0x14 }
  - { offset: 0x2EAEC, size: 0x8, addend: 0x0, symName: __ZNSt19bad_optional_accessC1Ev, symObjAddr: 0x13028, symBinAddr: 0x100014E78, symSize: 0x2C }
  - { offset: 0x2EB18, size: 0x8, addend: 0x0, symName: __ZNSt19bad_optional_accessC2Ev, symObjAddr: 0x13054, symBinAddr: 0x100014EA4, symSize: 0x3C }
  - { offset: 0x2EB44, size: 0x8, addend: 0x0, symName: __ZN23OpenAddressingHashTableI13LinearProbingED2Ev, symObjAddr: 0x13090, symBinAddr: 0x100014EE0, symSize: 0x38 }
  - { offset: 0x31191, size: 0x8, addend: 0x0, symName: __Z18MurmurHash3_x86_32PKvijPv, symObjAddr: 0x0, symBinAddr: 0x100014F18, symSize: 0x2AC }
  - { offset: 0x31224, size: 0x8, addend: 0x0, symName: __Z18MurmurHash3_x86_32PKvijPv, symObjAddr: 0x0, symBinAddr: 0x100014F18, symSize: 0x2AC }
  - { offset: 0x31365, size: 0x8, addend: 0x0, symName: __Z6rotl32ja, symObjAddr: 0x2AC, symBinAddr: 0x1000151C4, symSize: 0x38 }
  - { offset: 0x313A0, size: 0x8, addend: 0x0, symName: __Z19MurmurHash3_x86_128PKvijPv, symObjAddr: 0x2E4, symBinAddr: 0x1000151FC, symSize: 0x90C }
  - { offset: 0x316B2, size: 0x8, addend: 0x0, symName: __Z19MurmurHash3_x64_128PKvijPv, symObjAddr: 0xC2C, symBinAddr: 0x100015B44, symSize: 0x5E8 }
  - { offset: 0x31888, size: 0x8, addend: 0x0, symName: __Z6rotl64ya, symObjAddr: 0x1250, symBinAddr: 0x100016168, symSize: 0x38 }
...
